---
triple:          'arm64-apple-darwin'
binary-path:     '/Users/kemal/Documents/GitHub/Evolution-Simulation/main'
relocations:
  - { offsetInCU: 0xCF, offset: 0xCF, size: 0x8, addend: 0x0, symName: __ZSt23__is_constant_evaluatedv, symObjAddr: 0x0, symBinAddr: 0x100003E74, symSize: 0x8 }
  - { offsetInCU: 0x73CF, offset: 0x73CF, size: 0x8, addend: 0x0, symName: __ZStL8__ioinit, symObjAddr: 0xB5A88, symBinAddr: 0x1000205A1, symSize: 0x0 }
  - { offsetInCU: 0x9A5D, offset: 0x9A5D, size: 0x8, addend: 0x0, symName: _count3, symObjAddr: 0xB5A90, symBinAddr: 0x1000205A8, symSize: 0x0 }
  - { offsetInCU: 0x9A78, offset: 0x9A78, size: 0x8, addend: 0x0, symName: _count4, symObjAddr: 0xB5A94, symBinAddr: 0x1000205AC, symSize: 0x0 }
  - { offsetInCU: 0x9A93, offset: 0x9A93, size: 0x8, addend: 0x0, symName: _count5, symObjAddr: 0xB5A98, symBinAddr: 0x1000205B0, symSize: 0x0 }
  - { offsetInCU: 0xE630, offset: 0xE630, size: 0x8, addend: 0x0, symName: __Z8colorMapB5cxx11, symObjAddr: 0xB5AA0, symBinAddr: 0x1000205B8, symSize: 0x0 }
  - { offsetInCU: 0xE6EA, offset: 0xE6EA, size: 0x8, addend: 0x0, symName: _creatureTable, symObjAddr: 0xB5AD8, symBinAddr: 0x1000205F0, symSize: 0x0 }
  - { offsetInCU: 0xE768, offset: 0xE768, size: 0x8, addend: 0x0, symName: __ZL19NumberOfNeuronTypes, symObjAddr: 0xF130, symBinAddr: 0x100014550, symSize: 0x0 }
  - { offsetInCU: 0x123C7, offset: 0x123C7, size: 0x8, addend: 0x0, symName: __ZL7ID_SIZE, symObjAddr: 0xF134, symBinAddr: 0x100014554, symSize: 0x0 }
  - { offsetInCU: 0x123E5, offset: 0x123E5, size: 0x8, addend: 0x0, symName: __ZL11WEIGHT_SIZE, symObjAddr: 0xF138, symBinAddr: 0x100014558, symSize: 0x0 }
  - { offsetInCU: 0x123FC, offset: 0x123FC, size: 0x8, addend: 0x0, symName: __ZL8DNA_SIZE, symObjAddr: 0xF13C, symBinAddr: 0x10001455C, symSize: 0x0 }
  - { offsetInCU: 0x17361, offset: 0x17361, size: 0x8, addend: 0x0, symName: __ZNSt8__detail30__integer_to_chars_is_unsignedIjEE, symObjAddr: 0xF1E8, symBinAddr: 0x100014608, symSize: 0x0 }
  - { offsetInCU: 0x1737B, offset: 0x1737B, size: 0x8, addend: 0x0, symName: __ZNSt8__detail30__integer_to_chars_is_unsignedImEE, symObjAddr: 0xF1E9, symBinAddr: 0x100014609, symSize: 0x0 }
  - { offsetInCU: 0x17395, offset: 0x17395, size: 0x8, addend: 0x0, symName: __ZNSt8__detail30__integer_to_chars_is_unsignedIyEE, symObjAddr: 0xF1EA, symBinAddr: 0x10001460A, symSize: 0x0 }
  - { offsetInCU: 0x1742F, offset: 0x1742F, size: 0x8, addend: 0x0, symName: __GLOBAL__sub_I_main.cpp, symObjAddr: 0xE4F0, symBinAddr: 0x100012364, symSize: 0x14 }
  - { offsetInCU: 0x1745B, offset: 0x1745B, size: 0x8, addend: 0x0, symName: __Z41__static_initialization_and_destruction_0v, symObjAddr: 0xE19C, symBinAddr: 0x100012010, symSize: 0x354 }
  - { offsetInCU: 0x17463, offset: 0x17463, size: 0x8, addend: 0x0, symName: __GLOBAL__sub_I_main.cpp, symObjAddr: 0xE4F0, symBinAddr: 0x100012364, symSize: 0x14 }
  - { offsetInCU: 0x17590, offset: 0x17590, size: 0x8, addend: 0x0, symName: __ZNSt13unordered_mapINSt7__cxx1112basic_stringIcSt11char_traitsIcESaIcEEES5_St4hashIS5_ESt8equal_toIS5_ESaISt4pairIKS5_S5_EEED1Ev, symObjAddr: 0xE17C, symBinAddr: 0x100011FF0, symSize: 0x20 }
  - { offsetInCU: 0x17598, offset: 0x17598, size: 0x8, addend: 0x0, symName: __Z41__static_initialization_and_destruction_0v, symObjAddr: 0xE19C, symBinAddr: 0x100012010, symSize: 0x354 }
  - { offsetInCU: 0x1757B, offset: 0x1757B, size: 0x8, addend: 0x0, symName: __ZN7leftEyeD0Ev, symObjAddr: 0xE154, symBinAddr: 0x100011FC8, symSize: 0x28 }
  - { offsetInCU: 0x17583, offset: 0x17583, size: 0x8, addend: 0x0, symName: __ZNSt13unordered_mapINSt7__cxx1112basic_stringIcSt11char_traitsIcESaIcEEES5_St4hashIS5_ESt8equal_toIS5_ESaISt4pairIKS5_S5_EEED1Ev, symObjAddr: 0xE17C, symBinAddr: 0x100011FF0, symSize: 0x20 }
  - { offsetInCU: 0x175AB, offset: 0x175AB, size: 0x8, addend: 0x0, symName: __ZN7leftEyeD1Ev, symObjAddr: 0xE120, symBinAddr: 0x100011F94, symSize: 0x34 }
  - { offsetInCU: 0x175B3, offset: 0x175B3, size: 0x8, addend: 0x0, symName: __ZN7leftEyeD0Ev, symObjAddr: 0xE154, symBinAddr: 0x100011FC8, symSize: 0x28 }
  - { offsetInCU: 0x17609, offset: 0x17609, size: 0x8, addend: 0x0, symName: __ZN8rightEyeD0Ev, symObjAddr: 0xE0F8, symBinAddr: 0x100011F6C, symSize: 0x28 }
  - { offsetInCU: 0x17611, offset: 0x17611, size: 0x8, addend: 0x0, symName: __ZN7leftEyeD1Ev, symObjAddr: 0xE120, symBinAddr: 0x100011F94, symSize: 0x34 }
  - { offsetInCU: 0x17639, offset: 0x17639, size: 0x8, addend: 0x0, symName: __ZN8rightEyeD1Ev, symObjAddr: 0xE0C4, symBinAddr: 0x100011F38, symSize: 0x34 }
  - { offsetInCU: 0x17641, offset: 0x17641, size: 0x8, addend: 0x0, symName: __ZN8rightEyeD0Ev, symObjAddr: 0xE0F8, symBinAddr: 0x100011F6C, symSize: 0x28 }
  - { offsetInCU: 0x17694, offset: 0x17694, size: 0x8, addend: 0x0, symName: __ZN6topEyeD0Ev, symObjAddr: 0xE09C, symBinAddr: 0x100011F10, symSize: 0x28 }
  - { offsetInCU: 0x1769C, offset: 0x1769C, size: 0x8, addend: 0x0, symName: __ZN8rightEyeD1Ev, symObjAddr: 0xE0C4, symBinAddr: 0x100011F38, symSize: 0x34 }
  - { offsetInCU: 0x176C4, offset: 0x176C4, size: 0x8, addend: 0x0, symName: __ZN6topEyeD1Ev, symObjAddr: 0xE068, symBinAddr: 0x100011EDC, symSize: 0x34 }
  - { offsetInCU: 0x176CC, offset: 0x176CC, size: 0x8, addend: 0x0, symName: __ZN6topEyeD0Ev, symObjAddr: 0xE09C, symBinAddr: 0x100011F10, symSize: 0x28 }
  - { offsetInCU: 0x17724, offset: 0x17724, size: 0x8, addend: 0x0, symName: __ZN9bottomEyeD0Ev, symObjAddr: 0xE040, symBinAddr: 0x100011EB4, symSize: 0x28 }
  - { offsetInCU: 0x1772C, offset: 0x1772C, size: 0x8, addend: 0x0, symName: __ZN6topEyeD1Ev, symObjAddr: 0xE068, symBinAddr: 0x100011EDC, symSize: 0x34 }
  - { offsetInCU: 0x17754, offset: 0x17754, size: 0x8, addend: 0x0, symName: __ZN9bottomEyeD1Ev, symObjAddr: 0xE00C, symBinAddr: 0x100011E80, symSize: 0x34 }
  - { offsetInCU: 0x1775C, offset: 0x1775C, size: 0x8, addend: 0x0, symName: __ZN9bottomEyeD0Ev, symObjAddr: 0xE040, symBinAddr: 0x100011EB4, symSize: 0x28 }
  - { offsetInCU: 0x177B8, offset: 0x177B8, size: 0x8, addend: 0x0, symName: __ZN15lateralLocationD0Ev, symObjAddr: 0xDFE4, symBinAddr: 0x100011E58, symSize: 0x28 }
  - { offsetInCU: 0x177C0, offset: 0x177C0, size: 0x8, addend: 0x0, symName: __ZN9bottomEyeD1Ev, symObjAddr: 0xE00C, symBinAddr: 0x100011E80, symSize: 0x34 }
  - { offsetInCU: 0x177E8, offset: 0x177E8, size: 0x8, addend: 0x0, symName: __ZN15lateralLocationD1Ev, symObjAddr: 0xDFB0, symBinAddr: 0x100011E24, symSize: 0x34 }
  - { offsetInCU: 0x177F0, offset: 0x177F0, size: 0x8, addend: 0x0, symName: __ZN15lateralLocationD0Ev, symObjAddr: 0xDFE4, symBinAddr: 0x100011E58, symSize: 0x28 }
  - { offsetInCU: 0x17846, offset: 0x17846, size: 0x8, addend: 0x0, symName: __ZN16verticalLocationD0Ev, symObjAddr: 0xDF88, symBinAddr: 0x100011DFC, symSize: 0x28 }
  - { offsetInCU: 0x1784E, offset: 0x1784E, size: 0x8, addend: 0x0, symName: __ZN15lateralLocationD1Ev, symObjAddr: 0xDFB0, symBinAddr: 0x100011E24, symSize: 0x34 }
  - { offsetInCU: 0x17876, offset: 0x17876, size: 0x8, addend: 0x0, symName: __ZN16verticalLocationD1Ev, symObjAddr: 0xDF54, symBinAddr: 0x100011DC8, symSize: 0x34 }
  - { offsetInCU: 0x1787E, offset: 0x1787E, size: 0x8, addend: 0x0, symName: __ZN16verticalLocationD0Ev, symObjAddr: 0xDF88, symBinAddr: 0x100011DFC, symSize: 0x28 }
  - { offsetInCU: 0x178C8, offset: 0x178C8, size: 0x8, addend: 0x0, symName: __ZN6goLeftD0Ev, symObjAddr: 0xDF2C, symBinAddr: 0x100011DA0, symSize: 0x28 }
  - { offsetInCU: 0x178D0, offset: 0x178D0, size: 0x8, addend: 0x0, symName: __ZN16verticalLocationD1Ev, symObjAddr: 0xDF54, symBinAddr: 0x100011DC8, symSize: 0x34 }
  - { offsetInCU: 0x178F8, offset: 0x178F8, size: 0x8, addend: 0x0, symName: __ZN6goLeftD1Ev, symObjAddr: 0xDEF8, symBinAddr: 0x100011D6C, symSize: 0x34 }
  - { offsetInCU: 0x17900, offset: 0x17900, size: 0x8, addend: 0x0, symName: __ZN6goLeftD0Ev, symObjAddr: 0xDF2C, symBinAddr: 0x100011DA0, symSize: 0x28 }
  - { offsetInCU: 0x17956, offset: 0x17956, size: 0x8, addend: 0x0, symName: __ZN7goRightD0Ev, symObjAddr: 0xDED0, symBinAddr: 0x100011D44, symSize: 0x28 }
  - { offsetInCU: 0x1795E, offset: 0x1795E, size: 0x8, addend: 0x0, symName: __ZN6goLeftD1Ev, symObjAddr: 0xDEF8, symBinAddr: 0x100011D6C, symSize: 0x34 }
  - { offsetInCU: 0x17986, offset: 0x17986, size: 0x8, addend: 0x0, symName: __ZN7goRightD1Ev, symObjAddr: 0xDE9C, symBinAddr: 0x100011D10, symSize: 0x34 }
  - { offsetInCU: 0x1798E, offset: 0x1798E, size: 0x8, addend: 0x0, symName: __ZN7goRightD0Ev, symObjAddr: 0xDED0, symBinAddr: 0x100011D44, symSize: 0x28 }
  - { offsetInCU: 0x179E0, offset: 0x179E0, size: 0x8, addend: 0x0, symName: __ZN4goUpD0Ev, symObjAddr: 0xDE74, symBinAddr: 0x100011CE8, symSize: 0x28 }
  - { offsetInCU: 0x179E8, offset: 0x179E8, size: 0x8, addend: 0x0, symName: __ZN7goRightD1Ev, symObjAddr: 0xDE9C, symBinAddr: 0x100011D10, symSize: 0x34 }
  - { offsetInCU: 0x17A10, offset: 0x17A10, size: 0x8, addend: 0x0, symName: __ZN4goUpD1Ev, symObjAddr: 0xDE40, symBinAddr: 0x100011CB4, symSize: 0x34 }
  - { offsetInCU: 0x17A18, offset: 0x17A18, size: 0x8, addend: 0x0, symName: __ZN4goUpD0Ev, symObjAddr: 0xDE74, symBinAddr: 0x100011CE8, symSize: 0x28 }
  - { offsetInCU: 0x17A6F, offset: 0x17A6F, size: 0x8, addend: 0x0, symName: __ZN6goDownD0Ev, symObjAddr: 0xDE18, symBinAddr: 0x100011C8C, symSize: 0x28 }
  - { offsetInCU: 0x17A77, offset: 0x17A77, size: 0x8, addend: 0x0, symName: __ZN4goUpD1Ev, symObjAddr: 0xDE40, symBinAddr: 0x100011CB4, symSize: 0x34 }
  - { offsetInCU: 0x17A9F, offset: 0x17A9F, size: 0x8, addend: 0x0, symName: __ZN6goDownD1Ev, symObjAddr: 0xDDE4, symBinAddr: 0x100011C58, symSize: 0x34 }
  - { offsetInCU: 0x17AA7, offset: 0x17AA7, size: 0x8, addend: 0x0, symName: __ZN6goDownD0Ev, symObjAddr: 0xDE18, symBinAddr: 0x100011C8C, symSize: 0x28 }
  - { offsetInCU: 0x17AFB, offset: 0x17AFB, size: 0x8, addend: 0x0, symName: __ZN4killD0Ev, symObjAddr: 0xDDBC, symBinAddr: 0x100011C30, symSize: 0x28 }
  - { offsetInCU: 0x17B03, offset: 0x17B03, size: 0x8, addend: 0x0, symName: __ZN6goDownD1Ev, symObjAddr: 0xDDE4, symBinAddr: 0x100011C58, symSize: 0x34 }
  - { offsetInCU: 0x17B2B, offset: 0x17B2B, size: 0x8, addend: 0x0, symName: __ZN4killD1Ev, symObjAddr: 0xDD88, symBinAddr: 0x100011BFC, symSize: 0x34 }
  - { offsetInCU: 0x17B33, offset: 0x17B33, size: 0x8, addend: 0x0, symName: __ZN4killD0Ev, symObjAddr: 0xDDBC, symBinAddr: 0x100011C30, symSize: 0x28 }
  - { offsetInCU: 0x17B8A, offset: 0x17B8A, size: 0x8, addend: 0x0, symName: __ZN5innerD0Ev, symObjAddr: 0xDD60, symBinAddr: 0x100011BD4, symSize: 0x28 }
  - { offsetInCU: 0x17B92, offset: 0x17B92, size: 0x8, addend: 0x0, symName: __ZN4killD1Ev, symObjAddr: 0xDD88, symBinAddr: 0x100011BFC, symSize: 0x34 }
  - { offsetInCU: 0x17BBA, offset: 0x17BBA, size: 0x8, addend: 0x0, symName: __ZN5innerD1Ev, symObjAddr: 0xDD2C, symBinAddr: 0x100011BA0, symSize: 0x34 }
  - { offsetInCU: 0x17BC2, offset: 0x17BC2, size: 0x8, addend: 0x0, symName: __ZN5innerD0Ev, symObjAddr: 0xDD60, symBinAddr: 0x100011BD4, symSize: 0x28 }
  - { offsetInCU: 0x17C92, offset: 0x17C92, size: 0x8, addend: 0x0, symName: __ZNSt4pairIKNSt7__cxx1112basic_stringIcSt11char_traitsIcESaIcEEES5_EC1IS6_S5_Lb1EEERS6_S9_, symObjAddr: 0xDCD4, symBinAddr: 0x100011B48, symSize: 0x58 }
  - { offsetInCU: 0x17C9A, offset: 0x17C9A, size: 0x8, addend: 0x0, symName: __ZN5innerD1Ev, symObjAddr: 0xDD2C, symBinAddr: 0x100011BA0, symSize: 0x34 }
  - { offsetInCU: 0x17D21, offset: 0x17D21, size: 0x8, addend: 0x0, symName: __ZNSt15__new_allocatorINSt8__detail10_Hash_nodeISt4pairIKNSt7__cxx1112basic_stringIcSt11char_traitsIcESaIcEEES8_ELb1EEEE8allocateEmPKv, symObjAddr: 0xDC44, symBinAddr: 0x100011AB8, symSize: 0x90 }
  - { offsetInCU: 0x17D29, offset: 0x17D29, size: 0x8, addend: 0x0, symName: __ZNSt4pairIKNSt7__cxx1112basic_stringIcSt11char_traitsIcESaIcEEES5_EC1IS6_S5_Lb1EEERS6_S9_, symObjAddr: 0xDCD4, symBinAddr: 0x100011B48, symSize: 0x58 }
  - { offsetInCU: 0x17DB3, offset: 0x17DB3, size: 0x8, addend: 0x0, symName: __ZNK9__gnu_cxx16__aligned_bufferISt4pairIKNSt7__cxx1112basic_stringIcSt11char_traitsIcESaIcEEES7_EE7_M_addrEv, symObjAddr: 0xDC30, symBinAddr: 0x100011AA4, symSize: 0x14 }
  - { offsetInCU: 0x17DBB, offset: 0x17DBB, size: 0x8, addend: 0x0, symName: __ZNSt15__new_allocatorINSt8__detail10_Hash_nodeISt4pairIKNSt7__cxx1112basic_stringIcSt11char_traitsIcESaIcEEES8_ELb1EEEE8allocateEmPKv, symObjAddr: 0xDC44, symBinAddr: 0x100011AB8, symSize: 0x90 }
  - { offsetInCU: 0x17DE7, offset: 0x17DE7, size: 0x8, addend: 0x0, symName: __ZNSt11__copy_moveILb0ELb0ESt26random_access_iterator_tagE12__assign_oneIP8creatureS4_EEvPT_PT0_, symObjAddr: 0xDC08, symBinAddr: 0x100011A7C, symSize: 0x28 }
  - { offsetInCU: 0x17DEF, offset: 0x17DEF, size: 0x8, addend: 0x0, symName: __ZNK9__gnu_cxx16__aligned_bufferISt4pairIKNSt7__cxx1112basic_stringIcSt11char_traitsIcESaIcEEES7_EE7_M_addrEv, symObjAddr: 0xDC30, symBinAddr: 0x100011AA4, symSize: 0x14 }
  - { offsetInCU: 0x17E4A, offset: 0x17E4A, size: 0x8, addend: 0x0, symName: __ZNSt11__copy_moveILb0ELb0ESt26random_access_iterator_tagE12__assign_oneIP8creatureKS4_EEvPT_PT0_, symObjAddr: 0xDBE0, symBinAddr: 0x100011A54, symSize: 0x28 }
  - { offsetInCU: 0x17E52, offset: 0x17E52, size: 0x8, addend: 0x0, symName: __ZNSt11__copy_moveILb0ELb0ESt26random_access_iterator_tagE12__assign_oneIP8creatureS4_EEvPT_PT0_, symObjAddr: 0xDC08, symBinAddr: 0x100011A7C, symSize: 0x28 }
  - { offsetInCU: 0x1801F, offset: 0x1801F, size: 0x8, addend: 0x0, symName: __ZSt12__to_addressINSt8__detail10_Hash_nodeISt4pairIKNSt7__cxx1112basic_stringIcSt11char_traitsIcESaIcEEES8_ELb1EEEEPT_SD_, symObjAddr: 0xDBCC, symBinAddr: 0x100011A40, symSize: 0x14 }
  - { offsetInCU: 0x18027, offset: 0x18027, size: 0x8, addend: 0x0, symName: __ZNSt11__copy_moveILb0ELb0ESt26random_access_iterator_tagE12__assign_oneIP8creatureKS4_EEvPT_PT0_, symObjAddr: 0xDBE0, symBinAddr: 0x100011A54, symSize: 0x28 }
  - { offsetInCU: 0x17F97, offset: 0x17F97, size: 0x8, addend: 0x0, symName: __ZNKSt8__detail15_Hash_code_baseINSt7__cxx1112basic_stringIcSt11char_traitsIcESaIcEEESt4pairIKS6_S6_ENS_10_Select1stESt4hashIS6_ENS_18_Mod_range_hashingENS_20_Default_ranged_hashELb1EE15_M_bucket_indexERKNS_16_Hash_node_valueIS9_Lb1EEEm, symObjAddr: 0xDB9C, symBinAddr: 0x100011A10, symSize: 0x30 }
  - { offsetInCU: 0x17F9F, offset: 0x17F9F, size: 0x8, addend: 0x0, symName: __ZSt12__to_addressINSt8__detail10_Hash_nodeISt4pairIKNSt7__cxx1112basic_stringIcSt11char_traitsIcESaIcEEES8_ELb1EEEEPT_SD_, symObjAddr: 0xDBCC, symBinAddr: 0x100011A40, symSize: 0x14 }
  - { offsetInCU: 0x17FF2, offset: 0x17FF2, size: 0x8, addend: 0x0, symName: __ZNSt8__detail15_Hashtable_baseINSt7__cxx1112basic_stringIcSt11char_traitsIcESaIcEEESt4pairIKS6_S6_ENS_10_Select1stESt8equal_toIS6_ESt4hashIS6_ENS_18_Mod_range_hashingENS_20_Default_ranged_hashENS_17_Hashtable_traitsILb1ELb0ELb1EEEE9_S_equalsEmRKNS_21_Hash_node_code_cacheILb1EEE, symObjAddr: 0xDB70, symBinAddr: 0x1000119E4, symSize: 0x2C }
  - { offsetInCU: 0x17FFA, offset: 0x17FFA, size: 0x8, addend: 0x0, symName: __ZNKSt8__detail15_Hash_code_baseINSt7__cxx1112basic_stringIcSt11char_traitsIcESaIcEEESt4pairIKS6_S6_ENS_10_Select1stESt4hashIS6_ENS_18_Mod_range_hashingENS_20_Default_ranged_hashELb1EE15_M_bucket_indexERKNS_16_Hash_node_valueIS9_Lb1EEEm, symObjAddr: 0xDB9C, symBinAddr: 0x100011A10, symSize: 0x30 }
  - { offsetInCU: 0x1803B, offset: 0x1803B, size: 0x8, addend: 0x0, symName: __ZNK9__gnu_cxx16__aligned_bufferISt4pairIKNSt7__cxx1112basic_stringIcSt11char_traitsIcESaIcEEES7_EE6_M_ptrEv, symObjAddr: 0xDB54, symBinAddr: 0x1000119C8, symSize: 0x1C }
  - { offsetInCU: 0x18043, offset: 0x18043, size: 0x8, addend: 0x0, symName: __ZNSt8__detail15_Hashtable_baseINSt7__cxx1112basic_stringIcSt11char_traitsIcESaIcEEESt4pairIKS6_S6_ENS_10_Select1stESt8equal_toIS6_ESt4hashIS6_ENS_18_Mod_range_hashingENS_20_Default_ranged_hashENS_17_Hashtable_traitsILb1ELb0ELb1EEEE9_S_equalsEmRKNS_21_Hash_node_code_cacheILb1EEE, symObjAddr: 0xDB70, symBinAddr: 0x1000119E4, symSize: 0x2C }
  - { offsetInCU: 0x1806C, offset: 0x1806C, size: 0x8, addend: 0x0, symName: __ZNSt11__copy_moveILb0ELb1ESt26random_access_iterator_tagE8__copy_mIP8creatureS4_EEPT0_PT_S8_S6_, symObjAddr: 0xDAC4, symBinAddr: 0x100011938, symSize: 0x90 }
  - { offsetInCU: 0x18074, offset: 0x18074, size: 0x8, addend: 0x0, symName: __ZNK9__gnu_cxx16__aligned_bufferISt4pairIKNSt7__cxx1112basic_stringIcSt11char_traitsIcESaIcEEES7_EE6_M_ptrEv, symObjAddr: 0xDB54, symBinAddr: 0x1000119C8, symSize: 0x1C }
  - { offsetInCU: 0x180F9, offset: 0x180F9, size: 0x8, addend: 0x0, symName: __ZNSt11__copy_moveILb0ELb1ESt26random_access_iterator_tagE8__copy_mIKP8creatureS4_EEPT0_PT_S9_S7_, symObjAddr: 0xDA34, symBinAddr: 0x1000118A8, symSize: 0x90 }
  - { offsetInCU: 0x18101, offset: 0x18101, size: 0x8, addend: 0x0, symName: __ZNSt11__copy_moveILb0ELb1ESt26random_access_iterator_tagE8__copy_mIP8creatureS4_EEPT0_PT_S8_S6_, symObjAddr: 0xDAC4, symBinAddr: 0x100011938, symSize: 0x90 }
  - { offsetInCU: 0x181EA, offset: 0x181EA, size: 0x8, addend: 0x0, symName: __ZSt4moveIRSaIP8creatureEEONSt16remove_referenceIT_E4typeEOS5_, symObjAddr: 0xDA20, symBinAddr: 0x100011894, symSize: 0x14 }
  - { offsetInCU: 0x181F2, offset: 0x181F2, size: 0x8, addend: 0x0, symName: __ZNSt11__copy_moveILb0ELb1ESt26random_access_iterator_tagE8__copy_mIKP8creatureS4_EEPT0_PT_S9_S7_, symObjAddr: 0xDA34, symBinAddr: 0x1000118A8, symSize: 0x90 }
  - { offsetInCU: 0x181DC, offset: 0x181DC, size: 0x8, addend: 0x0, symName: __ZNSt12_Vector_baseIP8creatureSaIS1_EE17_Vector_impl_data12_M_copy_dataERKS4_, symObjAddr: 0xD9D8, symBinAddr: 0x10001184C, symSize: 0x48 }
  - { offsetInCU: 0x181E4, offset: 0x181E4, size: 0x8, addend: 0x0, symName: __ZSt4moveIRSaIP8creatureEEONSt16remove_referenceIT_E4typeEOS5_, symObjAddr: 0xDA20, symBinAddr: 0x100011894, symSize: 0x14 }
  - { offsetInCU: 0x1827D, offset: 0x1827D, size: 0x8, addend: 0x0, symName: __ZNSt12_Vector_baseIP8creatureSaIS1_EEC2ERKS2_, symObjAddr: 0xD9B0, symBinAddr: 0x100011824, symSize: 0x28 }
  - { offsetInCU: 0x18285, offset: 0x18285, size: 0x8, addend: 0x0, symName: __ZNSt12_Vector_baseIP8creatureSaIS1_EE17_Vector_impl_data12_M_copy_dataERKS4_, symObjAddr: 0xD9D8, symBinAddr: 0x10001184C, symSize: 0x48 }
  - { offsetInCU: 0x18366, offset: 0x18366, size: 0x8, addend: 0x0, symName: __ZSt13__copy_move_aILb0EN9__gnu_cxx17__normal_iteratorIPKP8creatureSt6vectorIS3_SaIS3_EEEEPS3_ET1_T0_SC_SB_, symObjAddr: 0xD950, symBinAddr: 0x1000117C4, symSize: 0x60 }
  - { offsetInCU: 0x1836E, offset: 0x1836E, size: 0x8, addend: 0x0, symName: __ZNSt12_Vector_baseIP8creatureSaIS1_EEC2ERKS2_, symObjAddr: 0xD9B0, symBinAddr: 0x100011824, symSize: 0x28 }
  - { offsetInCU: 0x1831E, offset: 0x1831E, size: 0x8, addend: 0x0, symName: __ZNSt10_HashtableINSt7__cxx1112basic_stringIcSt11char_traitsIcESaIcEEESt4pairIKS5_S5_ESaIS8_ENSt8__detail10_Select1stESt8equal_toIS5_ESt4hashIS5_ENSA_18_Mod_range_hashingENSA_20_Default_ranged_hashENSA_20_Prime_rehash_policyENSA_17_Hashtable_traitsILb1ELb0ELb1EEEE13_M_rehash_auxEmSt17integral_constantIbLb1EE, symObjAddr: 0xD7E4, symBinAddr: 0x100011658, symSize: 0x16C }
  - { offsetInCU: 0x18326, offset: 0x18326, size: 0x8, addend: 0x0, symName: __ZSt13__copy_move_aILb0EN9__gnu_cxx17__normal_iteratorIPKP8creatureSt6vectorIS3_SaIS3_EEEEPS3_ET1_T0_SC_SB_, symObjAddr: 0xD950, symBinAddr: 0x1000117C4, symSize: 0x60 }
  - { offsetInCU: 0x183EE, offset: 0x183EE, size: 0x8, addend: 0x0, symName: __ZNSt8__detail16_Hashtable_allocISaINS_10_Hash_nodeISt4pairIKNSt7__cxx1112basic_stringIcSt11char_traitsIcESaIcEEES8_ELb1EEEEE16_M_allocate_nodeIJRS9_SF_EEEPSB_DpOT_, symObjAddr: 0xD648, symBinAddr: 0x1000114BC, symSize: 0x19C }
  - { offsetInCU: 0x183F6, offset: 0x183F6, size: 0x8, addend: 0x0, symName: __ZNSt10_HashtableINSt7__cxx1112basic_stringIcSt11char_traitsIcESaIcEEESt4pairIKS5_S5_ESaIS8_ENSt8__detail10_Select1stESt8equal_toIS5_ESt4hashIS5_ENSA_18_Mod_range_hashingENSA_20_Default_ranged_hashENSA_20_Prime_rehash_policyENSA_17_Hashtable_traitsILb1ELb0ELb1EEEE13_M_rehash_auxEmSt17integral_constantIbLb1EE, symObjAddr: 0xD7E4, symBinAddr: 0x100011658, symSize: 0x16C }
  - { offsetInCU: 0x18622, offset: 0x18622, size: 0x8, addend: 0x0, symName: __ZNSt8__detail10_Hash_nodeISt4pairIKNSt7__cxx1112basic_stringIcSt11char_traitsIcESaIcEEES7_ELb1EEC1Ev, symObjAddr: 0xD628, symBinAddr: 0x10001149C, symSize: 0x20 }
  - { offsetInCU: 0x1862A, offset: 0x1862A, size: 0x8, addend: 0x0, symName: __ZNSt8__detail16_Hashtable_allocISaINS_10_Hash_nodeISt4pairIKNSt7__cxx1112basic_stringIcSt11char_traitsIcESaIcEEES8_ELb1EEEEE16_M_allocate_nodeIJRS9_SF_EEEPSB_DpOT_, symObjAddr: 0xD648, symBinAddr: 0x1000114BC, symSize: 0x19C }
  - { offsetInCU: 0x185EC, offset: 0x185EC, size: 0x8, addend: 0x0, symName: __ZNKSt10_HashtableINSt7__cxx1112basic_stringIcSt11char_traitsIcESaIcEEESt4pairIKS5_S5_ESaIS8_ENSt8__detail10_Select1stESt8equal_toIS5_ESt4hashIS5_ENSA_18_Mod_range_hashingENSA_20_Default_ranged_hashENSA_20_Prime_rehash_policyENSA_17_Hashtable_traitsILb1ELb0ELb1EEEE15_M_bucket_indexERKNSA_16_Hash_node_valueIS8_Lb1EEE, symObjAddr: 0xD5F8, symBinAddr: 0x10001146C, symSize: 0x30 }
  - { offsetInCU: 0x185F4, offset: 0x185F4, size: 0x8, addend: 0x0, symName: __ZNSt8__detail10_Hash_nodeISt4pairIKNSt7__cxx1112basic_stringIcSt11char_traitsIcESaIcEEES7_ELb1EEC1Ev, symObjAddr: 0xD628, symBinAddr: 0x10001149C, symSize: 0x20 }
  - { offsetInCU: 0x18632, offset: 0x18632, size: 0x8, addend: 0x0, symName: __ZNKSt8__detail15_Hashtable_baseINSt7__cxx1112basic_stringIcSt11char_traitsIcESaIcEEESt4pairIKS6_S6_ENS_10_Select1stESt8equal_toIS6_ESt4hashIS6_ENS_18_Mod_range_hashingENS_20_Default_ranged_hashENS_17_Hashtable_traitsILb1ELb0ELb1EEEE12_M_equals_trIS6_EEbRKT_mRKNS_16_Hash_node_valueIS9_Lb1EEE, symObjAddr: 0xD588, symBinAddr: 0x1000113FC, symSize: 0x70 }
  - { offsetInCU: 0x1863A, offset: 0x1863A, size: 0x8, addend: 0x0, symName: __ZNKSt10_HashtableINSt7__cxx1112basic_stringIcSt11char_traitsIcESaIcEEESt4pairIKS5_S5_ESaIS8_ENSt8__detail10_Select1stESt8equal_toIS5_ESt4hashIS5_ENSA_18_Mod_range_hashingENSA_20_Default_ranged_hashENSA_20_Prime_rehash_policyENSA_17_Hashtable_traitsILb1ELb0ELb1EEEE15_M_bucket_indexERKNSA_16_Hash_node_valueIS8_Lb1EEE, symObjAddr: 0xD5F8, symBinAddr: 0x10001146C, symSize: 0x30 }
  - { offsetInCU: 0x186AF, offset: 0x186AF, size: 0x8, addend: 0x0, symName: __ZNKSt8__detail21_Hashtable_ebo_helperILi1ESt4hashINSt7__cxx1112basic_stringIcSt11char_traitsIcESaIcEEEELb1EE7_M_cgetEv, symObjAddr: 0xD574, symBinAddr: 0x1000113E8, symSize: 0x14 }
  - { offsetInCU: 0x186B7, offset: 0x186B7, size: 0x8, addend: 0x0, symName: __ZNKSt8__detail15_Hashtable_baseINSt7__cxx1112basic_stringIcSt11char_traitsIcESaIcEEESt4pairIKS6_S6_ENS_10_Select1stESt8equal_toIS6_ESt4hashIS6_ENS_18_Mod_range_hashingENS_20_Default_ranged_hashENS_17_Hashtable_traitsILb1ELb0ELb1EEEE12_M_equals_trIS6_EEbRKT_mRKNS_16_Hash_node_valueIS9_Lb1EEE, symObjAddr: 0xD588, symBinAddr: 0x1000113FC, symSize: 0x70 }
  - { offsetInCU: 0x18770, offset: 0x18770, size: 0x8, addend: 0x0, symName: __ZSteqIcSt11char_traitsIcESaIcEEbRKNSt7__cxx1112basic_stringIT_T0_T1_EESA_, symObjAddr: 0xD4F4, symBinAddr: 0x100011368, symSize: 0x80 }
  - { offsetInCU: 0x18778, offset: 0x18778, size: 0x8, addend: 0x0, symName: __ZNKSt8__detail21_Hashtable_ebo_helperILi1ESt4hashINSt7__cxx1112basic_stringIcSt11char_traitsIcESaIcEEEELb1EE7_M_cgetEv, symObjAddr: 0xD574, symBinAddr: 0x1000113E8, symSize: 0x14 }
  - { offsetInCU: 0x1875D, offset: 0x1875D, size: 0x8, addend: 0x0, symName: __ZNKSt8__detail21_Hash_node_value_baseISt4pairIKNSt7__cxx1112basic_stringIcSt11char_traitsIcESaIcEEES7_EE9_M_valptrEv, symObjAddr: 0xD4D8, symBinAddr: 0x10001134C, symSize: 0x1C }
  - { offsetInCU: 0x18765, offset: 0x18765, size: 0x8, addend: 0x0, symName: __ZSteqIcSt11char_traitsIcESaIcEEbRKNSt7__cxx1112basic_stringIT_T0_T1_EESA_, symObjAddr: 0xD4F4, symBinAddr: 0x100011368, symSize: 0x80 }
  - { offsetInCU: 0x1878E, offset: 0x1878E, size: 0x8, addend: 0x0, symName: __ZNKSt8__detail21_Hashtable_ebo_helperILi0ESt8equal_toINSt7__cxx1112basic_stringIcSt11char_traitsIcESaIcEEEELb1EE7_M_cgetEv, symObjAddr: 0xD4C4, symBinAddr: 0x100011338, symSize: 0x14 }
  - { offsetInCU: 0x18796, offset: 0x18796, size: 0x8, addend: 0x0, symName: __ZNKSt8__detail21_Hash_node_value_baseISt4pairIKNSt7__cxx1112basic_stringIcSt11char_traitsIcESaIcEEES7_EE9_M_valptrEv, symObjAddr: 0xD4D8, symBinAddr: 0x10001134C, symSize: 0x1C }
  - { offsetInCU: 0x18827, offset: 0x18827, size: 0x8, addend: 0x0, symName: __ZSt14__copy_move_a2ILb0EPP8creatureS2_ET1_T0_S4_S3_, symObjAddr: 0xD498, symBinAddr: 0x10001130C, symSize: 0x2C }
  - { offsetInCU: 0x1882F, offset: 0x1882F, size: 0x8, addend: 0x0, symName: __ZNKSt8__detail21_Hashtable_ebo_helperILi0ESt8equal_toINSt7__cxx1112basic_stringIcSt11char_traitsIcESaIcEEEELb1EE7_M_cgetEv, symObjAddr: 0xD4C4, symBinAddr: 0x100011338, symSize: 0x14 }
  - { offsetInCU: 0x188C2, offset: 0x188C2, size: 0x8, addend: 0x0, symName: __ZSt14__copy_move_a2ILb0EPKP8creaturePS1_ET1_T0_S6_S5_, symObjAddr: 0xD46C, symBinAddr: 0x1000112E0, symSize: 0x2C }
  - { offsetInCU: 0x188CA, offset: 0x188CA, size: 0x8, addend: 0x0, symName: __ZSt14__copy_move_a2ILb0EPP8creatureS2_ET1_T0_S4_S3_, symObjAddr: 0xD498, symBinAddr: 0x10001130C, symSize: 0x2C }
  - { offsetInCU: 0x18927, offset: 0x18927, size: 0x8, addend: 0x0, symName: __ZNSt12_Vector_baseIP8creatureSaIS1_EE17_Vector_impl_data12_M_swap_dataERS4_, symObjAddr: 0xD420, symBinAddr: 0x100011294, symSize: 0x4C }
  - { offsetInCU: 0x1892F, offset: 0x1892F, size: 0x8, addend: 0x0, symName: __ZSt14__copy_move_a2ILb0EPKP8creaturePS1_ET1_T0_S6_S5_, symObjAddr: 0xD46C, symBinAddr: 0x1000112E0, symSize: 0x2C }
  - { offsetInCU: 0x189D4, offset: 0x189D4, size: 0x8, addend: 0x0, symName: __ZNSt6vectorIP8creatureSaIS1_EEC1ERKS2_, symObjAddr: 0xD3F8, symBinAddr: 0x10001126C, symSize: 0x28 }
  - { offsetInCU: 0x189DC, offset: 0x189DC, size: 0x8, addend: 0x0, symName: __ZNSt12_Vector_baseIP8creatureSaIS1_EE17_Vector_impl_data12_M_swap_dataERS4_, symObjAddr: 0xD420, symBinAddr: 0x100011294, symSize: 0x4C }
  - { offsetInCU: 0x189E9, offset: 0x189E9, size: 0x8, addend: 0x0, symName: __ZNKSt12_Vector_baseIP8creatureSaIS1_EE13get_allocatorEv, symObjAddr: 0xD3A8, symBinAddr: 0x10001121C, symSize: 0x50 }
  - { offsetInCU: 0x189F1, offset: 0x189F1, size: 0x8, addend: 0x0, symName: __ZNSt6vectorIP8creatureSaIS1_EEC1ERKS2_, symObjAddr: 0xD3F8, symBinAddr: 0x10001126C, symSize: 0x28 }
  - { offsetInCU: 0x18AEF, offset: 0x18AEF, size: 0x8, addend: 0x0, symName: __ZNSt12_Vector_baseIP8creatureSaIS1_EE17_Vector_impl_dataC2EOS4_, symObjAddr: 0xD338, symBinAddr: 0x1000111AC, symSize: 0x70 }
  - { offsetInCU: 0x18AF7, offset: 0x18AF7, size: 0x8, addend: 0x0, symName: __ZNKSt12_Vector_baseIP8creatureSaIS1_EE13get_allocatorEv, symObjAddr: 0xD3A8, symBinAddr: 0x10001121C, symSize: 0x50 }
  - { offsetInCU: 0x18BA1, offset: 0x18BA1, size: 0x8, addend: 0x0, symName: __ZSt4moveIRNSt12_Vector_baseIP8creatureSaIS2_EE12_Vector_implEEONSt16remove_referenceIT_E4typeEOS8_, symObjAddr: 0xD324, symBinAddr: 0x100011198, symSize: 0x14 }
  - { offsetInCU: 0x18BA9, offset: 0x18BA9, size: 0x8, addend: 0x0, symName: __ZNSt12_Vector_baseIP8creatureSaIS1_EE17_Vector_impl_dataC2EOS4_, symObjAddr: 0xD338, symBinAddr: 0x1000111AC, symSize: 0x70 }
  - { offsetInCU: 0x18B4B, offset: 0x18B4B, size: 0x8, addend: 0x0, symName: __ZNKSt13move_iteratorIPSt6vectorIP8creatureSaIS2_EEE4baseEv, symObjAddr: 0xD30C, symBinAddr: 0x100011180, symSize: 0x18 }
  - { offsetInCU: 0x18B53, offset: 0x18B53, size: 0x8, addend: 0x0, symName: __ZSt4moveIRNSt12_Vector_baseIP8creatureSaIS2_EE12_Vector_implEEONSt16remove_referenceIT_E4typeEOS8_, symObjAddr: 0xD324, symBinAddr: 0x100011198, symSize: 0x14 }
  - { offsetInCU: 0x18C38, offset: 0x18C38, size: 0x8, addend: 0x0, symName: __ZSt4copyIN9__gnu_cxx17__normal_iteratorIPKP8creatureSt6vectorIS3_SaIS3_EEEEPS3_ET0_T_SC_SB_, symObjAddr: 0xD2C4, symBinAddr: 0x100011138, symSize: 0x48 }
  - { offsetInCU: 0x18C40, offset: 0x18C40, size: 0x8, addend: 0x0, symName: __ZNKSt13move_iteratorIPSt6vectorIP8creatureSaIS2_EEE4baseEv, symObjAddr: 0xD30C, symBinAddr: 0x100011180, symSize: 0x18 }
  - { offsetInCU: 0x18C01, offset: 0x18C01, size: 0x8, addend: 0x0, symName: __ZNSt10_HashtableINSt7__cxx1112basic_stringIcSt11char_traitsIcESaIcEEESt4pairIKS5_S5_ESaIS8_ENSt8__detail10_Select1stESt8equal_toIS5_ESt4hashIS5_ENSA_18_Mod_range_hashingENSA_20_Default_ranged_hashENSA_20_Prime_rehash_policyENSA_17_Hashtable_traitsILb1ELb0ELb1EEEE22_M_insert_bucket_beginEmPNSA_10_Hash_nodeIS8_Lb1EEE, symObjAddr: 0xD1B8, symBinAddr: 0x10001102C, symSize: 0x10C }
  - { offsetInCU: 0x18C09, offset: 0x18C09, size: 0x8, addend: 0x0, symName: __ZSt4copyIN9__gnu_cxx17__normal_iteratorIPKP8creatureSt6vectorIS3_SaIS3_EEEEPS3_ET0_T_SC_SB_, symObjAddr: 0xD2C4, symBinAddr: 0x100011138, symSize: 0x48 }
  - { offsetInCU: 0x18C5C, offset: 0x18C5C, size: 0x8, addend: 0x0, symName: __ZNKSt8__detail15_Hash_code_baseINSt7__cxx1112basic_stringIcSt11char_traitsIcESaIcEEESt4pairIKS6_S6_ENS_10_Select1stESt4hashIS6_ENS_18_Mod_range_hashingENS_20_Default_ranged_hashELb1EE13_M_store_codeERNS_21_Hash_node_code_cacheILb1EEEm, symObjAddr: 0xD190, symBinAddr: 0x100011004, symSize: 0x28 }
  - { offsetInCU: 0x18C64, offset: 0x18C64, size: 0x8, addend: 0x0, symName: __ZNSt10_HashtableINSt7__cxx1112basic_stringIcSt11char_traitsIcESaIcEEESt4pairIKS5_S5_ESaIS8_ENSt8__detail10_Select1stESt8equal_toIS5_ESt4hashIS5_ENSA_18_Mod_range_hashingENSA_20_Default_ranged_hashENSA_20_Prime_rehash_policyENSA_17_Hashtable_traitsILb1ELb0ELb1EEEE22_M_insert_bucket_beginEmPNSA_10_Hash_nodeIS8_Lb1EEE, symObjAddr: 0xD1B8, symBinAddr: 0x10001102C, symSize: 0x10C }
  - { offsetInCU: 0x18CB7, offset: 0x18CB7, size: 0x8, addend: 0x0, symName: __ZNSt10_HashtableINSt7__cxx1112basic_stringIcSt11char_traitsIcESaIcEEESt4pairIKS5_S5_ESaIS8_ENSt8__detail10_Select1stESt8equal_toIS5_ESt4hashIS5_ENSA_18_Mod_range_hashingENSA_20_Default_ranged_hashENSA_20_Prime_rehash_policyENSA_17_Hashtable_traitsILb1ELb0ELb1EEEE9_M_rehashEmRKm, symObjAddr: 0xD124, symBinAddr: 0x100010F98, symSize: 0x6C }
  - { offsetInCU: 0x18CBF, offset: 0x18CBF, size: 0x8, addend: 0x0, symName: __ZNKSt8__detail15_Hash_code_baseINSt7__cxx1112basic_stringIcSt11char_traitsIcESaIcEEESt4pairIKS6_S6_ENS_10_Select1stESt4hashIS6_ENS_18_Mod_range_hashingENS_20_Default_ranged_hashELb1EE13_M_store_codeERNS_21_Hash_node_code_cacheILb1EEEm, symObjAddr: 0xD190, symBinAddr: 0x100011004, symSize: 0x28 }
  - { offsetInCU: 0x18D2F, offset: 0x18D2F, size: 0x8, addend: 0x0, symName: __ZNKSt8__detail10_AllocNodeISaINS_10_Hash_nodeISt4pairIKNSt7__cxx1112basic_stringIcSt11char_traitsIcESaIcEEES8_ELb1EEEEEclIJRS9_SF_EEEPSB_DpOT_, symObjAddr: 0xD0D4, symBinAddr: 0x100010F48, symSize: 0x50 }
  - { offsetInCU: 0x18D37, offset: 0x18D37, size: 0x8, addend: 0x0, symName: __ZNSt10_HashtableINSt7__cxx1112basic_stringIcSt11char_traitsIcESaIcEEESt4pairIKS5_S5_ESaIS8_ENSt8__detail10_Select1stESt8equal_toIS5_ESt4hashIS5_ENSA_18_Mod_range_hashingENSA_20_Default_ranged_hashENSA_20_Prime_rehash_policyENSA_17_Hashtable_traitsILb1ELb0ELb1EEEE9_M_rehashEmRKm, symObjAddr: 0xD124, symBinAddr: 0x100010F98, symSize: 0x6C }
  - { offsetInCU: 0x18EC2, offset: 0x18EC2, size: 0x8, addend: 0x0, symName: __ZSt7forwardINSt8__detail14_Node_iteratorISt4pairIKNSt7__cxx1112basic_stringIcSt11char_traitsIcESaIcEEES8_ELb0ELb1EEEEOT_RNSt16remove_referenceISC_E4typeE, symObjAddr: 0xD0C0, symBinAddr: 0x100010F34, symSize: 0x14 }
  - { offsetInCU: 0x18ECA, offset: 0x18ECA, size: 0x8, addend: 0x0, symName: __ZNKSt8__detail10_AllocNodeISaINS_10_Hash_nodeISt4pairIKNSt7__cxx1112basic_stringIcSt11char_traitsIcESaIcEEES8_ELb1EEEEEclIJRS9_SF_EEEPSB_DpOT_, symObjAddr: 0xD0D4, symBinAddr: 0x100010F48, symSize: 0x50 }
  - { offsetInCU: 0x18DEE, offset: 0x18DEE, size: 0x8, addend: 0x0, symName: __ZNKSt10_HashtableINSt7__cxx1112basic_stringIcSt11char_traitsIcESaIcEEESt4pairIKS5_S5_ESaIS8_ENSt8__detail10_Select1stESt8equal_toIS5_ESt4hashIS5_ENSA_18_Mod_range_hashingENSA_20_Default_ranged_hashENSA_20_Prime_rehash_policyENSA_17_Hashtable_traitsILb1ELb0ELb1EEEE22_M_find_before_node_trIS5_EEPNSA_15_Hash_node_baseEmRKT_m, symObjAddr: 0xCFC0, symBinAddr: 0x100010E34, symSize: 0x100 }
  - { offsetInCU: 0x18DF6, offset: 0x18DF6, size: 0x8, addend: 0x0, symName: __ZSt7forwardINSt8__detail14_Node_iteratorISt4pairIKNSt7__cxx1112basic_stringIcSt11char_traitsIcESaIcEEES8_ELb0ELb1EEEEOT_RNSt16remove_referenceISC_E4typeE, symObjAddr: 0xD0C0, symBinAddr: 0x100010F34, symSize: 0x14 }
  - { offsetInCU: 0x18EA8, offset: 0x18EA8, size: 0x8, addend: 0x0, symName: __ZNKSt8__detail15_Hash_code_baseINSt7__cxx1112basic_stringIcSt11char_traitsIcESaIcEEESt4pairIKS6_S6_ENS_10_Select1stESt4hashIS6_ENS_18_Mod_range_hashingENS_20_Default_ranged_hashELb1EE15_M_bucket_indexEmm, symObjAddr: 0xCF94, symBinAddr: 0x100010E08, symSize: 0x2C }
  - { offsetInCU: 0x18EB0, offset: 0x18EB0, size: 0x8, addend: 0x0, symName: __ZNKSt10_HashtableINSt7__cxx1112basic_stringIcSt11char_traitsIcESaIcEEESt4pairIKS5_S5_ESaIS8_ENSt8__detail10_Select1stESt8equal_toIS5_ESt4hashIS5_ENSA_18_Mod_range_hashingENSA_20_Default_ranged_hashENSA_20_Prime_rehash_policyENSA_17_Hashtable_traitsILb1ELb0ELb1EEEE22_M_find_before_node_trIS5_EEPNSA_15_Hash_node_baseEmRKT_m, symObjAddr: 0xCFC0, symBinAddr: 0x100010E34, symSize: 0x100 }
  - { offsetInCU: 0x18F03, offset: 0x18F03, size: 0x8, addend: 0x0, symName: __ZNKSt15__str_hash_baseIcSaIcENSt7__cxx1112basic_stringIcSt11char_traitsIcES0_EEEclERKS5_, symObjAddr: 0xCF4C, symBinAddr: 0x100010DC0, symSize: 0x48 }
  - { offsetInCU: 0x18F0B, offset: 0x18F0B, size: 0x8, addend: 0x0, symName: __ZNKSt8__detail15_Hash_code_baseINSt7__cxx1112basic_stringIcSt11char_traitsIcESaIcEEESt4pairIKS6_S6_ENS_10_Select1stESt4hashIS6_ENS_18_Mod_range_hashingENS_20_Default_ranged_hashELb1EE15_M_bucket_indexEmm, symObjAddr: 0xCF94, symBinAddr: 0x100010E08, symSize: 0x2C }
  - { offsetInCU: 0x18F49, offset: 0x18F49, size: 0x8, addend: 0x0, symName: __ZNKSt8__detail15_Hash_code_baseINSt7__cxx1112basic_stringIcSt11char_traitsIcESaIcEEESt4pairIKS6_S6_ENS_10_Select1stESt4hashIS6_ENS_18_Mod_range_hashingENS_20_Default_ranged_hashELb1EE7_M_hashEv, symObjAddr: 0xCF30, symBinAddr: 0x100010DA4, symSize: 0x1C }
  - { offsetInCU: 0x18F51, offset: 0x18F51, size: 0x8, addend: 0x0, symName: __ZNKSt15__str_hash_baseIcSaIcENSt7__cxx1112basic_stringIcSt11char_traitsIcES0_EEEclERKS5_, symObjAddr: 0xCF4C, symBinAddr: 0x100010DC0, symSize: 0x48 }
  - { offsetInCU: 0x190A5, offset: 0x190A5, size: 0x8, addend: 0x0, symName: __ZSt7forwardIRNSt8__detail14_Node_iteratorISt4pairIKNSt7__cxx1112basic_stringIcSt11char_traitsIcESaIcEEES8_ELb0ELb1EEEEOT_RNSt16remove_referenceISD_E4typeE, symObjAddr: 0xCF1C, symBinAddr: 0x100010D90, symSize: 0x14 }
  - { offsetInCU: 0x190AD, offset: 0x190AD, size: 0x8, addend: 0x0, symName: __ZNKSt8__detail15_Hash_code_baseINSt7__cxx1112basic_stringIcSt11char_traitsIcESaIcEEESt4pairIKS6_S6_ENS_10_Select1stESt4hashIS6_ENS_18_Mod_range_hashingENS_20_Default_ranged_hashELb1EE7_M_hashEv, symObjAddr: 0xCF30, symBinAddr: 0x100010DA4, symSize: 0x1C }
  - { offsetInCU: 0x18FD0, offset: 0x18FD0, size: 0x8, addend: 0x0, symName: __ZNKSt8equal_toINSt7__cxx1112basic_stringIcSt11char_traitsIcESaIcEEEEclERKS5_S8_, symObjAddr: 0xCEF0, symBinAddr: 0x100010D64, symSize: 0x2C }
  - { offsetInCU: 0x18FD8, offset: 0x18FD8, size: 0x8, addend: 0x0, symName: __ZSt7forwardIRNSt8__detail14_Node_iteratorISt4pairIKNSt7__cxx1112basic_stringIcSt11char_traitsIcESaIcEEES8_ELb0ELb1EEEEOT_RNSt16remove_referenceISD_E4typeE, symObjAddr: 0xCF1C, symBinAddr: 0x100010D90, symSize: 0x14 }
  - { offsetInCU: 0x1902B, offset: 0x1902B, size: 0x8, addend: 0x0, symName: __ZNKSt8__detail21_Hash_node_value_baseISt4pairIKNSt7__cxx1112basic_stringIcSt11char_traitsIcESaIcEEES7_EE4_M_vEv, symObjAddr: 0xCED4, symBinAddr: 0x100010D48, symSize: 0x1C }
  - { offsetInCU: 0x19033, offset: 0x19033, size: 0x8, addend: 0x0, symName: __ZNKSt8equal_toINSt7__cxx1112basic_stringIcSt11char_traitsIcESaIcEEEEclERKS5_S8_, symObjAddr: 0xCEF0, symBinAddr: 0x100010D64, symSize: 0x2C }
  - { offsetInCU: 0x1905C, offset: 0x1905C, size: 0x8, addend: 0x0, symName: __ZNKSt8__detail15_Hashtable_baseINSt7__cxx1112basic_stringIcSt11char_traitsIcESaIcEEESt4pairIKS6_S6_ENS_10_Select1stESt8equal_toIS6_ESt4hashIS6_ENS_18_Mod_range_hashingENS_20_Default_ranged_hashENS_17_Hashtable_traitsILb1ELb0ELb1EEEE5_M_eqEv, symObjAddr: 0xCEB8, symBinAddr: 0x100010D2C, symSize: 0x1C }
  - { offsetInCU: 0x19064, offset: 0x19064, size: 0x8, addend: 0x0, symName: __ZNKSt8__detail21_Hash_node_value_baseISt4pairIKNSt7__cxx1112basic_stringIcSt11char_traitsIcESaIcEEES7_EE4_M_vEv, symObjAddr: 0xCED4, symBinAddr: 0x100010D48, symSize: 0x1C }
  - { offsetInCU: 0x1908E, offset: 0x1908E, size: 0x8, addend: 0x0, symName: __ZNSt8__detail22_Hashtable_hash_traitsISt4hashINSt7__cxx1112basic_stringIcSt11char_traitsIcESaIcEEEEE22__small_size_thresholdEv, symObjAddr: 0xCEB0, symBinAddr: 0x100010D24, symSize: 0x8 }
  - { offsetInCU: 0x19096, offset: 0x19096, size: 0x8, addend: 0x0, symName: __ZNKSt8__detail15_Hashtable_baseINSt7__cxx1112basic_stringIcSt11char_traitsIcESaIcEEESt4pairIKS6_S6_ENS_10_Select1stESt8equal_toIS6_ESt4hashIS6_ENS_18_Mod_range_hashingENS_20_Default_ranged_hashENS_17_Hashtable_traitsILb1ELb0ELb1EEEE5_M_eqEv, symObjAddr: 0xCEB8, symBinAddr: 0x100010D2C, symSize: 0x1C }
  - { offsetInCU: 0x190AA, offset: 0x190AA, size: 0x8, addend: 0x0, symName: __ZNSt20__uninitialized_copyILb1EE13__uninit_copyIPP8creatureS4_EET0_T_S6_S5_, symObjAddr: 0xCE84, symBinAddr: 0x100010CF8, symSize: 0x2C }
  - { offsetInCU: 0x190B2, offset: 0x190B2, size: 0x8, addend: 0x0, symName: __ZNSt8__detail22_Hashtable_hash_traitsISt4hashINSt7__cxx1112basic_stringIcSt11char_traitsIcESaIcEEEEE22__small_size_thresholdEv, symObjAddr: 0xCEB0, symBinAddr: 0x100010D24, symSize: 0x8 }
  - { offsetInCU: 0x19167, offset: 0x19167, size: 0x8, addend: 0x0, symName: __ZSt12__niter_wrapIPP8creatureET_RKS3_S3_, symObjAddr: 0xCE6C, symBinAddr: 0x100010CE0, symSize: 0x18 }
  - { offsetInCU: 0x1916F, offset: 0x1916F, size: 0x8, addend: 0x0, symName: __ZNSt20__uninitialized_copyILb1EE13__uninit_copyIPP8creatureS4_EET0_T_S6_S5_, symObjAddr: 0xCE84, symBinAddr: 0x100010CF8, symSize: 0x2C }
  - { offsetInCU: 0x191E2, offset: 0x191E2, size: 0x8, addend: 0x0, symName: __ZSt14__copy_move_a1ILb0EPP8creatureS2_ET1_T0_S4_S3_, symObjAddr: 0xCE40, symBinAddr: 0x100010CB4, symSize: 0x2C }
  - { offsetInCU: 0x191EA, offset: 0x191EA, size: 0x8, addend: 0x0, symName: __ZSt12__niter_wrapIPP8creatureET_RKS3_S3_, symObjAddr: 0xCE6C, symBinAddr: 0x100010CE0, symSize: 0x18 }
  - { offsetInCU: 0x1920D, offset: 0x1920D, size: 0x8, addend: 0x0, symName: __ZNSt12_Destroy_auxILb1EE9__destroyIN9__gnu_cxx17__normal_iteratorIPP8creatureSt6vectorIS5_SaIS5_EEEEEEvT_SB_, symObjAddr: 0xCE28, symBinAddr: 0x100010C9C, symSize: 0x18 }
  - { offsetInCU: 0x19215, offset: 0x19215, size: 0x8, addend: 0x0, symName: __ZSt14__copy_move_a1ILb0EPP8creatureS2_ET1_T0_S4_S3_, symObjAddr: 0xCE40, symBinAddr: 0x100010CB4, symSize: 0x2C }
  - { offsetInCU: 0x19315, offset: 0x19315, size: 0x8, addend: 0x0, symName: __ZSt12__niter_wrapIN9__gnu_cxx17__normal_iteratorIPP8creatureSt6vectorIS3_SaIS3_EEEES4_ET_S9_T0_, symObjAddr: 0xCDEC, symBinAddr: 0x100010C60, symSize: 0x3C }
  - { offsetInCU: 0x1931D, offset: 0x1931D, size: 0x8, addend: 0x0, symName: __ZNSt12_Destroy_auxILb1EE9__destroyIN9__gnu_cxx17__normal_iteratorIPP8creatureSt6vectorIS5_SaIS5_EEEEEEvT_SB_, symObjAddr: 0xCE28, symBinAddr: 0x100010C9C, symSize: 0x18 }
  - { offsetInCU: 0x19333, offset: 0x19333, size: 0x8, addend: 0x0, symName: __ZSt14__copy_move_a1ILb0EPKP8creaturePS1_ET1_T0_S6_S5_, symObjAddr: 0xCDC0, symBinAddr: 0x100010C34, symSize: 0x2C }
  - { offsetInCU: 0x1933B, offset: 0x1933B, size: 0x8, addend: 0x0, symName: __ZSt12__niter_wrapIN9__gnu_cxx17__normal_iteratorIPP8creatureSt6vectorIS3_SaIS3_EEEES4_ET_S9_T0_, symObjAddr: 0xCDEC, symBinAddr: 0x100010C60, symSize: 0x3C }
  - { offsetInCU: 0x193EB, offset: 0x193EB, size: 0x8, addend: 0x0, symName: __ZSt12__niter_baseIPP8creatureSt6vectorIS1_SaIS1_EEET_N9__gnu_cxx17__normal_iteratorIS6_T0_EE, symObjAddr: 0xCDA0, symBinAddr: 0x100010C14, symSize: 0x20 }
  - { offsetInCU: 0x193F3, offset: 0x193F3, size: 0x8, addend: 0x0, symName: __ZSt14__copy_move_a1ILb0EPKP8creaturePS1_ET1_T0_S6_S5_, symObjAddr: 0xCDC0, symBinAddr: 0x100010C34, symSize: 0x2C }
  - { offsetInCU: 0x1944D, offset: 0x1944D, size: 0x8, addend: 0x0, symName: __ZSt12__niter_baseIPKP8creatureSt6vectorIS1_SaIS1_EEET_N9__gnu_cxx17__normal_iteratorIS7_T0_EE, symObjAddr: 0xCD80, symBinAddr: 0x100010BF4, symSize: 0x20 }
  - { offsetInCU: 0x19455, offset: 0x19455, size: 0x8, addend: 0x0, symName: __ZSt12__niter_baseIPP8creatureSt6vectorIS1_SaIS1_EEET_N9__gnu_cxx17__normal_iteratorIS6_T0_EE, symObjAddr: 0xCDA0, symBinAddr: 0x100010C14, symSize: 0x20 }
  - { offsetInCU: 0x1940C, offset: 0x1940C, size: 0x8, addend: 0x0, symName: __ZNSt6vectorIP8creatureSaIS1_EE14_M_move_assignEOS3_St17integral_constantIbLb1EE, symObjAddr: 0xCCEC, symBinAddr: 0x100010B60, symSize: 0x94 }
  - { offsetInCU: 0x19414, offset: 0x19414, size: 0x8, addend: 0x0, symName: __ZSt12__niter_baseIPKP8creatureSt6vectorIS1_SaIS1_EEET_N9__gnu_cxx17__normal_iteratorIS7_T0_EE, symObjAddr: 0xCD80, symBinAddr: 0x100010BF4, symSize: 0x20 }
  - { offsetInCU: 0x19535, offset: 0x19535, size: 0x8, addend: 0x0, symName: __ZNSt12_Vector_baseIP8creatureSaIS1_EE12_Vector_implC1EOS4_, symObjAddr: 0xCC80, symBinAddr: 0x100010AF4, symSize: 0x6C }
  - { offsetInCU: 0x1953D, offset: 0x1953D, size: 0x8, addend: 0x0, symName: __ZNSt6vectorIP8creatureSaIS1_EE14_M_move_assignEOS3_St17integral_constantIbLb1EE, symObjAddr: 0xCCEC, symBinAddr: 0x100010B60, symSize: 0x94 }
  - { offsetInCU: 0x19612, offset: 0x19612, size: 0x8, addend: 0x0, symName: __ZSt7forwardISt6vectorIP8creatureSaIS2_EEEOT_RNSt16remove_referenceIS5_E4typeE, symObjAddr: 0xCC6C, symBinAddr: 0x100010AE0, symSize: 0x14 }
  - { offsetInCU: 0x1961A, offset: 0x1961A, size: 0x8, addend: 0x0, symName: __ZNSt12_Vector_baseIP8creatureSaIS1_EE12_Vector_implC1EOS4_, symObjAddr: 0xCC80, symBinAddr: 0x100010AF4, symSize: 0x6C }
  - { offsetInCU: 0x1965E, offset: 0x1965E, size: 0x8, addend: 0x0, symName: __ZSteqIPSt6vectorIP8creatureSaIS2_EEEbRKSt13move_iteratorIT_ESA_, symObjAddr: 0xCC2C, symBinAddr: 0x100010AA0, symSize: 0x40 }
  - { offsetInCU: 0x19666, offset: 0x19666, size: 0x8, addend: 0x0, symName: __ZSt7forwardISt6vectorIP8creatureSaIS2_EEEOT_RNSt16remove_referenceIS5_E4typeE, symObjAddr: 0xCC6C, symBinAddr: 0x100010AE0, symSize: 0x14 }
  - { offsetInCU: 0x19661, offset: 0x19661, size: 0x8, addend: 0x0, symName: __ZNSt20__uninitialized_copyILb1EE13__uninit_copyIN9__gnu_cxx17__normal_iteratorIPKP8creatureSt6vectorIS5_SaIS5_EEEEPS5_EET0_T_SE_SD_, symObjAddr: 0xCC00, symBinAddr: 0x100010A74, symSize: 0x2C }
  - { offsetInCU: 0x19669, offset: 0x19669, size: 0x8, addend: 0x0, symName: __ZSteqIPSt6vectorIP8creatureSaIS2_EEEbRKSt13move_iteratorIT_ESA_, symObjAddr: 0xCC2C, symBinAddr: 0x100010AA0, symSize: 0x40 }
  - { offsetInCU: 0x19765, offset: 0x19765, size: 0x8, addend: 0x0, symName: __ZSt9__fill_a1IPP8creatureS1_EN9__gnu_cxx11__enable_ifIXsrSt11__is_scalarIT0_E7__valueEvE6__typeET_SA_RKS6_, symObjAddr: 0xCBA8, symBinAddr: 0x100010A1C, symSize: 0x58 }
  - { offsetInCU: 0x1976D, offset: 0x1976D, size: 0x8, addend: 0x0, symName: __ZNSt20__uninitialized_copyILb1EE13__uninit_copyIN9__gnu_cxx17__normal_iteratorIPKP8creatureSt6vectorIS5_SaIS5_EEEEPS5_EET0_T_SE_SD_, symObjAddr: 0xCC00, symBinAddr: 0x100010A74, symSize: 0x2C }
  - { offsetInCU: 0x1986B, offset: 0x1986B, size: 0x8, addend: 0x0, symName: __ZSt11__addressofINSt8__detail10_Hash_nodeISt4pairIKNSt7__cxx1112basic_stringIcSt11char_traitsIcESaIcEEES8_ELb1EEEEPT_RSC_, symObjAddr: 0xCB94, symBinAddr: 0x100010A08, symSize: 0x14 }
  - { offsetInCU: 0x19873, offset: 0x19873, size: 0x8, addend: 0x0, symName: __ZSt9__fill_a1IPP8creatureS1_EN9__gnu_cxx11__enable_ifIXsrSt11__is_scalarIT0_E7__valueEvE6__typeET_SA_RKS6_, symObjAddr: 0xCBA8, symBinAddr: 0x100010A1C, symSize: 0x58 }
  - { offsetInCU: 0x197B4, offset: 0x197B4, size: 0x8, addend: 0x0, symName: __ZNSt10_HashtableINSt7__cxx1112basic_stringIcSt11char_traitsIcESaIcEEESt4pairIKS5_S5_ESaIS8_ENSt8__detail10_Select1stESt8equal_toIS5_ESt4hashIS5_ENSA_18_Mod_range_hashingENSA_20_Default_ranged_hashENSA_20_Prime_rehash_policyENSA_17_Hashtable_traitsILb1ELb0ELb1EEEE21_M_insert_unique_nodeEmmPNSA_10_Hash_nodeIS8_Lb1EEEm, symObjAddr: 0xCAAC, symBinAddr: 0x100010920, symSize: 0xE8 }
  - { offsetInCU: 0x197BC, offset: 0x197BC, size: 0x8, addend: 0x0, symName: __ZSt11__addressofINSt8__detail10_Hash_nodeISt4pairIKNSt7__cxx1112basic_stringIcSt11char_traitsIcESaIcEEES8_ELb1EEEEPT_RSC_, symObjAddr: 0xCB94, symBinAddr: 0x100010A08, symSize: 0x14 }
  - { offsetInCU: 0x199AB, offset: 0x199AB, size: 0x8, addend: 0x0, symName: __ZNSt10_HashtableINSt7__cxx1112basic_stringIcSt11char_traitsIcESaIcEEESt4pairIKS5_S5_ESaIS8_ENSt8__detail10_Select1stESt8equal_toIS5_ESt4hashIS5_ENSA_18_Mod_range_hashingENSA_20_Default_ranged_hashENSA_20_Prime_rehash_policyENSA_17_Hashtable_traitsILb1ELb0ELb1EEEE12_Scoped_nodeD1Ev, symObjAddr: 0xCA68, symBinAddr: 0x1000108DC, symSize: 0x44 }
  - { offsetInCU: 0x199B3, offset: 0x199B3, size: 0x8, addend: 0x0, symName: __ZNSt10_HashtableINSt7__cxx1112basic_stringIcSt11char_traitsIcESaIcEEESt4pairIKS5_S5_ESaIS8_ENSt8__detail10_Select1stESt8equal_toIS5_ESt4hashIS5_ENSA_18_Mod_range_hashingENSA_20_Default_ranged_hashENSA_20_Prime_rehash_policyENSA_17_Hashtable_traitsILb1ELb0ELb1EEEE21_M_insert_unique_nodeEmmPNSA_10_Hash_nodeIS8_Lb1EEEm, symObjAddr: 0xCAAC, symBinAddr: 0x100010920, symSize: 0xE8 }
  - { offsetInCU: 0x19A55, offset: 0x19A55, size: 0x8, addend: 0x0, symName: __ZNSt10_HashtableINSt7__cxx1112basic_stringIcSt11char_traitsIcESaIcEEESt4pairIKS5_S5_ESaIS8_ENSt8__detail10_Select1stESt8equal_toIS5_ESt4hashIS5_ENSA_18_Mod_range_hashingENSA_20_Default_ranged_hashENSA_20_Prime_rehash_policyENSA_17_Hashtable_traitsILb1ELb0ELb1EEEE12_Scoped_nodeC1EPNSA_10_Hash_nodeIS8_Lb1EEEPNSA_16_Hashtable_allocISaISO_EEE, symObjAddr: 0xCA34, symBinAddr: 0x1000108A8, symSize: 0x34 }
  - { offsetInCU: 0x19A5D, offset: 0x19A5D, size: 0x8, addend: 0x0, symName: __ZNSt10_HashtableINSt7__cxx1112basic_stringIcSt11char_traitsIcESaIcEEESt4pairIKS5_S5_ESaIS8_ENSt8__detail10_Select1stESt8equal_toIS5_ESt4hashIS5_ENSA_18_Mod_range_hashingENSA_20_Default_ranged_hashENSA_20_Prime_rehash_policyENSA_17_Hashtable_traitsILb1ELb0ELb1EEEE12_Scoped_nodeD1Ev, symObjAddr: 0xCA68, symBinAddr: 0x1000108DC, symSize: 0x44 }
  - { offsetInCU: 0x19953, offset: 0x19953, size: 0x8, addend: 0x0, symName: __ZNSt8__detail12_NodeBuilderINS_10_Select1stEE8_S_buildIRKNSt7__cxx1112basic_stringIcSt11char_traitsIcESaIcEEERKSt4pairISA_S9_ENS_10_AllocNodeISaINS_10_Hash_nodeISD_Lb1EEEEEEEEPNT1_11__node_typeEOT_OT0_RKSL_, symObjAddr: 0xC9E8, symBinAddr: 0x10001085C, symSize: 0x4C }
  - { offsetInCU: 0x1995B, offset: 0x1995B, size: 0x8, addend: 0x0, symName: __ZNSt10_HashtableINSt7__cxx1112basic_stringIcSt11char_traitsIcESaIcEEESt4pairIKS5_S5_ESaIS8_ENSt8__detail10_Select1stESt8equal_toIS5_ESt4hashIS5_ENSA_18_Mod_range_hashingENSA_20_Default_ranged_hashENSA_20_Prime_rehash_policyENSA_17_Hashtable_traitsILb1ELb0ELb1EEEE12_Scoped_nodeC1EPNSA_10_Hash_nodeIS8_Lb1EEEPNSA_16_Hashtable_allocISaISO_EEE, symObjAddr: 0xCA34, symBinAddr: 0x1000108A8, symSize: 0x34 }
  - { offsetInCU: 0x19A73, offset: 0x19A73, size: 0x8, addend: 0x0, symName: __ZSt7forwardIRKNSt7__cxx1112basic_stringIcSt11char_traitsIcESaIcEEEEOT_RNSt16remove_referenceIS8_E4typeE, symObjAddr: 0xC9D4, symBinAddr: 0x100010848, symSize: 0x14 }
  - { offsetInCU: 0x19A7B, offset: 0x19A7B, size: 0x8, addend: 0x0, symName: __ZNSt8__detail12_NodeBuilderINS_10_Select1stEE8_S_buildIRKNSt7__cxx1112basic_stringIcSt11char_traitsIcESaIcEEERKSt4pairISA_S9_ENS_10_AllocNodeISaINS_10_Hash_nodeISD_Lb1EEEEEEEEPNT1_11__node_typeEOT_OT0_RKSL_, symObjAddr: 0xC9E8, symBinAddr: 0x10001085C, symSize: 0x4C }
  - { offsetInCU: 0x19B09, offset: 0x19B09, size: 0x8, addend: 0x0, symName: __ZNSt4pairINSt8__detail14_Node_iteratorIS_IKNSt7__cxx1112basic_stringIcSt11char_traitsIcESaIcEEES7_ELb0ELb1EEEbEC1ISA_bLb1EEEOT_OT0_, symObjAddr: 0xC988, symBinAddr: 0x1000107FC, symSize: 0x4C }
  - { offsetInCU: 0x19B11, offset: 0x19B11, size: 0x8, addend: 0x0, symName: __ZSt7forwardIRKNSt7__cxx1112basic_stringIcSt11char_traitsIcESaIcEEEEOT_RNSt16remove_referenceIS8_E4typeE, symObjAddr: 0xC9D4, symBinAddr: 0x100010848, symSize: 0x14 }
  - { offsetInCU: 0x19AE8, offset: 0x19AE8, size: 0x8, addend: 0x0, symName: __ZNKSt10_HashtableINSt7__cxx1112basic_stringIcSt11char_traitsIcESaIcEEESt4pairIKS5_S5_ESaIS8_ENSt8__detail10_Select1stESt8equal_toIS5_ESt4hashIS5_ENSA_18_Mod_range_hashingENSA_20_Default_ranged_hashENSA_20_Prime_rehash_policyENSA_17_Hashtable_traitsILb1ELb0ELb1EEEE15_M_find_node_trIS5_EEPNSA_10_Hash_nodeIS8_Lb1EEEmRKT_m, symObjAddr: 0xC934, symBinAddr: 0x1000107A8, symSize: 0x54 }
  - { offsetInCU: 0x19AF0, offset: 0x19AF0, size: 0x8, addend: 0x0, symName: __ZNSt4pairINSt8__detail14_Node_iteratorIS_IKNSt7__cxx1112basic_stringIcSt11char_traitsIcESaIcEEES7_ELb0ELb1EEEbEC1ISA_bLb1EEEOT_OT0_, symObjAddr: 0xC988, symBinAddr: 0x1000107FC, symSize: 0x4C }
  - { offsetInCU: 0x19B7A, offset: 0x19B7A, size: 0x8, addend: 0x0, symName: __ZNKSt10_HashtableINSt7__cxx1112basic_stringIcSt11char_traitsIcESaIcEEESt4pairIKS5_S5_ESaIS8_ENSt8__detail10_Select1stESt8equal_toIS5_ESt4hashIS5_ENSA_18_Mod_range_hashingENSA_20_Default_ranged_hashENSA_20_Prime_rehash_policyENSA_17_Hashtable_traitsILb1ELb0ELb1EEEE15_M_bucket_indexEm, symObjAddr: 0xC904, symBinAddr: 0x100010778, symSize: 0x30 }
  - { offsetInCU: 0x19B82, offset: 0x19B82, size: 0x8, addend: 0x0, symName: __ZNKSt10_HashtableINSt7__cxx1112basic_stringIcSt11char_traitsIcESaIcEEESt4pairIKS5_S5_ESaIS8_ENSt8__detail10_Select1stESt8equal_toIS5_ESt4hashIS5_ENSA_18_Mod_range_hashingENSA_20_Default_ranged_hashENSA_20_Prime_rehash_policyENSA_17_Hashtable_traitsILb1ELb0ELb1EEEE15_M_find_node_trIS5_EEPNSA_10_Hash_nodeIS8_Lb1EEEmRKT_m, symObjAddr: 0xC934, symBinAddr: 0x1000107A8, symSize: 0x54 }
  - { offsetInCU: 0x19BC0, offset: 0x19BC0, size: 0x8, addend: 0x0, symName: __ZNKSt8__detail15_Hash_code_baseINSt7__cxx1112basic_stringIcSt11char_traitsIcESaIcEEESt4pairIKS6_S6_ENS_10_Select1stESt4hashIS6_ENS_18_Mod_range_hashingENS_20_Default_ranged_hashELb1EE15_M_hash_code_trIS6_EEmRKT_, symObjAddr: 0xC8DC, symBinAddr: 0x100010750, symSize: 0x28 }
  - { offsetInCU: 0x19BC8, offset: 0x19BC8, size: 0x8, addend: 0x0, symName: __ZNKSt10_HashtableINSt7__cxx1112basic_stringIcSt11char_traitsIcESaIcEEESt4pairIKS5_S5_ESaIS8_ENSt8__detail10_Select1stESt8equal_toIS5_ESt4hashIS5_ENSA_18_Mod_range_hashingENSA_20_Default_ranged_hashENSA_20_Prime_rehash_policyENSA_17_Hashtable_traitsILb1ELb0ELb1EEEE15_M_bucket_indexEm, symObjAddr: 0xC904, symBinAddr: 0x100010778, symSize: 0x30 }
  - { offsetInCU: 0x19CF2, offset: 0x19CF2, size: 0x8, addend: 0x0, symName: __ZNSt4pairINSt8__detail14_Node_iteratorIS_IKNSt7__cxx1112basic_stringIcSt11char_traitsIcESaIcEEES7_ELb0ELb1EEEbEC1IRSA_bLb1EEEOT_OT0_, symObjAddr: 0xC890, symBinAddr: 0x100010704, symSize: 0x4C }
  - { offsetInCU: 0x19CFA, offset: 0x19CFA, size: 0x8, addend: 0x0, symName: __ZNKSt8__detail15_Hash_code_baseINSt7__cxx1112basic_stringIcSt11char_traitsIcESaIcEEESt4pairIKS6_S6_ENS_10_Select1stESt4hashIS6_ENS_18_Mod_range_hashingENS_20_Default_ranged_hashELb1EE15_M_hash_code_trIS6_EEmRKT_, symObjAddr: 0xC8DC, symBinAddr: 0x100010750, symSize: 0x28 }
  - { offsetInCU: 0x19CD0, offset: 0x19CD0, size: 0x8, addend: 0x0, symName: __ZNKSt8__detail15_Hashtable_baseINSt7__cxx1112basic_stringIcSt11char_traitsIcESaIcEEESt4pairIKS6_S6_ENS_10_Select1stESt8equal_toIS6_ESt4hashIS6_ENS_18_Mod_range_hashingENS_20_Default_ranged_hashENS_17_Hashtable_traitsILb1ELb0ELb1EEEE16_M_key_equals_trIS6_EEbRKT_RKNS_16_Hash_node_valueIS9_Lb1EEE, symObjAddr: 0xC838, symBinAddr: 0x1000106AC, symSize: 0x58 }
  - { offsetInCU: 0x19CD8, offset: 0x19CD8, size: 0x8, addend: 0x0, symName: __ZNSt4pairINSt8__detail14_Node_iteratorIS_IKNSt7__cxx1112basic_stringIcSt11char_traitsIcESaIcEEES7_ELb0ELb1EEEbEC1IRSA_bLb1EEEOT_OT0_, symObjAddr: 0xC890, symBinAddr: 0x100010704, symSize: 0x4C }
  - { offsetInCU: 0x19DB9, offset: 0x19DB9, size: 0x8, addend: 0x0, symName: __ZNSt8__detailneERKNS_19_Node_iterator_baseISt4pairIKNSt7__cxx1112basic_stringIcSt11char_traitsIcESaIcEEES7_ELb1EEESC_, symObjAddr: 0xC808, symBinAddr: 0x10001067C, symSize: 0x30 }
  - { offsetInCU: 0x19DC1, offset: 0x19DC1, size: 0x8, addend: 0x0, symName: __ZNKSt8__detail15_Hashtable_baseINSt7__cxx1112basic_stringIcSt11char_traitsIcESaIcEEESt4pairIKS6_S6_ENS_10_Select1stESt8equal_toIS6_ESt4hashIS6_ENS_18_Mod_range_hashingENS_20_Default_ranged_hashENS_17_Hashtable_traitsILb1ELb0ELb1EEEE16_M_key_equals_trIS6_EEbRKT_RKNS_16_Hash_node_valueIS9_Lb1EEE, symObjAddr: 0xC838, symBinAddr: 0x1000106AC, symSize: 0x58 }
  - { offsetInCU: 0x19D98, offset: 0x19D98, size: 0x8, addend: 0x0, symName: __ZNSt10_HashtableINSt7__cxx1112basic_stringIcSt11char_traitsIcESaIcEEESt4pairIKS5_S5_ESaIS8_ENSt8__detail10_Select1stESt8equal_toIS5_ESt4hashIS5_ENSA_18_Mod_range_hashingENSA_20_Default_ranged_hashENSA_20_Prime_rehash_policyENSA_17_Hashtable_traitsILb1ELb0ELb1EEEE3endEv, symObjAddr: 0xC7E4, symBinAddr: 0x100010658, symSize: 0x24 }
  - { offsetInCU: 0x19DA0, offset: 0x19DA0, size: 0x8, addend: 0x0, symName: __ZNSt8__detailneERKNS_19_Node_iterator_baseISt4pairIKNSt7__cxx1112basic_stringIcSt11char_traitsIcESaIcEEES7_ELb1EEESC_, symObjAddr: 0xC808, symBinAddr: 0x10001067C, symSize: 0x30 }
  - { offsetInCU: 0x19DCA, offset: 0x19DCA, size: 0x8, addend: 0x0, symName: __ZNSt10_HashtableINSt7__cxx1112basic_stringIcSt11char_traitsIcESaIcEEESt4pairIKS5_S5_ESaIS8_ENSt8__detail10_Select1stESt8equal_toIS5_ESt4hashIS5_ENSA_18_Mod_range_hashingENSA_20_Default_ranged_hashENSA_20_Prime_rehash_policyENSA_17_Hashtable_traitsILb1ELb0ELb1EEEE22__small_size_thresholdEv, symObjAddr: 0xC7D0, symBinAddr: 0x100010644, symSize: 0x14 }
  - { offsetInCU: 0x19DD2, offset: 0x19DD2, size: 0x8, addend: 0x0, symName: __ZNSt10_HashtableINSt7__cxx1112basic_stringIcSt11char_traitsIcESaIcEEESt4pairIKS5_S5_ESaIS8_ENSt8__detail10_Select1stESt8equal_toIS5_ESt4hashIS5_ENSA_18_Mod_range_hashingENSA_20_Default_ranged_hashENSA_20_Prime_rehash_policyENSA_17_Hashtable_traitsILb1ELb0ELb1EEEE3endEv, symObjAddr: 0xC7E4, symBinAddr: 0x100010658, symSize: 0x24 }
  - { offsetInCU: 0x19ED9, offset: 0x19ED9, size: 0x8, addend: 0x0, symName: __ZSt7forwardIRKSt4hashINSt7__cxx1112basic_stringIcSt11char_traitsIcESaIcEEEEEOT_RNSt16remove_referenceISA_E4typeE, symObjAddr: 0xC7BC, symBinAddr: 0x100010630, symSize: 0x14 }
  - { offsetInCU: 0x19EE1, offset: 0x19EE1, size: 0x8, addend: 0x0, symName: __ZNSt10_HashtableINSt7__cxx1112basic_stringIcSt11char_traitsIcESaIcEEESt4pairIKS5_S5_ESaIS8_ENSt8__detail10_Select1stESt8equal_toIS5_ESt4hashIS5_ENSA_18_Mod_range_hashingENSA_20_Default_ranged_hashENSA_20_Prime_rehash_policyENSA_17_Hashtable_traitsILb1ELb0ELb1EEEE22__small_size_thresholdEv, symObjAddr: 0xC7D0, symBinAddr: 0x100010644, symSize: 0x14 }
  - { offsetInCU: 0x19EDF, offset: 0x19EDF, size: 0x8, addend: 0x0, symName: __ZSt18uninitialized_copyIPP8creatureS2_ET0_T_S4_S3_, symObjAddr: 0xC780, symBinAddr: 0x1000105F4, symSize: 0x3C }
  - { offsetInCU: 0x19EE7, offset: 0x19EE7, size: 0x8, addend: 0x0, symName: __ZSt7forwardIRKSt4hashINSt7__cxx1112basic_stringIcSt11char_traitsIcESaIcEEEEEOT_RNSt16remove_referenceISA_E4typeE, symObjAddr: 0xC7BC, symBinAddr: 0x100010630, symSize: 0x14 }
  - { offsetInCU: 0x19F89, offset: 0x19F89, size: 0x8, addend: 0x0, symName: __ZSt13__copy_move_aILb0EPP8creatureS2_ET1_T0_S4_S3_, symObjAddr: 0xC720, symBinAddr: 0x100010594, symSize: 0x60 }
  - { offsetInCU: 0x19F91, offset: 0x19F91, size: 0x8, addend: 0x0, symName: __ZSt18uninitialized_copyIPP8creatureS2_ET0_T_S4_S3_, symObjAddr: 0xC780, symBinAddr: 0x1000105F4, symSize: 0x3C }
  - { offsetInCU: 0x19FF9, offset: 0x19FF9, size: 0x8, addend: 0x0, symName: __ZSt12__miter_baseIPP8creatureET_S3_, symObjAddr: 0xC70C, symBinAddr: 0x100010580, symSize: 0x14 }
  - { offsetInCU: 0x1A001, offset: 0x1A001, size: 0x8, addend: 0x0, symName: __ZSt13__copy_move_aILb0EPP8creatureS2_ET1_T0_S4_S3_, symObjAddr: 0xC720, symBinAddr: 0x100010594, symSize: 0x60 }
  - { offsetInCU: 0x1A0A8, offset: 0x1A0A8, size: 0x8, addend: 0x0, symName: __ZSt8_DestroyIN9__gnu_cxx17__normal_iteratorIPP8creatureSt6vectorIS3_SaIS3_EEEEEvT_S9_, symObjAddr: 0xC6E4, symBinAddr: 0x100010558, symSize: 0x28 }
  - { offsetInCU: 0x1A0B0, offset: 0x1A0B0, size: 0x8, addend: 0x0, symName: __ZSt12__miter_baseIPP8creatureET_S3_, symObjAddr: 0xC70C, symBinAddr: 0x100010580, symSize: 0x14 }
  - { offsetInCU: 0x1A179, offset: 0x1A179, size: 0x8, addend: 0x0, symName: __ZSt13__copy_move_aILb0EN9__gnu_cxx17__normal_iteratorIPKP8creatureSt6vectorIS3_SaIS3_EEEENS1_IPS3_S8_EEET1_T0_SD_SC_, symObjAddr: 0xC684, symBinAddr: 0x1000104F8, symSize: 0x60 }
  - { offsetInCU: 0x1A181, offset: 0x1A181, size: 0x8, addend: 0x0, symName: __ZSt8_DestroyIN9__gnu_cxx17__normal_iteratorIPP8creatureSt6vectorIS3_SaIS3_EEEEEvT_S9_, symObjAddr: 0xC6E4, symBinAddr: 0x100010558, symSize: 0x28 }
  - { offsetInCU: 0x1A1A7, offset: 0x1A1A7, size: 0x8, addend: 0x0, symName: __ZSt12__miter_baseIN9__gnu_cxx17__normal_iteratorIPKP8creatureSt6vectorIS3_SaIS3_EEEEET_SA_, symObjAddr: 0xC670, symBinAddr: 0x1000104E4, symSize: 0x14 }
  - { offsetInCU: 0x1A1AF, offset: 0x1A1AF, size: 0x8, addend: 0x0, symName: __ZSt13__copy_move_aILb0EN9__gnu_cxx17__normal_iteratorIPKP8creatureSt6vectorIS3_SaIS3_EEEENS1_IPS3_S8_EEET1_T0_SD_SC_, symObjAddr: 0xC684, symBinAddr: 0x1000104F8, symSize: 0x60 }
  - { offsetInCU: 0x1A13D, offset: 0x1A13D, size: 0x8, addend: 0x0, symName: __ZNSt6vectorIP8creatureSaIS1_EEaSEOS3_, symObjAddr: 0xC62C, symBinAddr: 0x1000104A0, symSize: 0x44 }
  - { offsetInCU: 0x1A145, offset: 0x1A145, size: 0x8, addend: 0x0, symName: __ZSt12__miter_baseIN9__gnu_cxx17__normal_iteratorIPKP8creatureSt6vectorIS3_SaIS3_EEEEET_SA_, symObjAddr: 0xC670, symBinAddr: 0x1000104E4, symSize: 0x14 }
  - { offsetInCU: 0x1A207, offset: 0x1A207, size: 0x8, addend: 0x0, symName: __ZSt4moveIRSt6vectorIP8creatureSaIS2_EEEONSt16remove_referenceIT_E4typeEOS7_, symObjAddr: 0xC618, symBinAddr: 0x10001048C, symSize: 0x14 }
  - { offsetInCU: 0x1A20F, offset: 0x1A20F, size: 0x8, addend: 0x0, symName: __ZNSt6vectorIP8creatureSaIS1_EEaSEOS3_, symObjAddr: 0xC62C, symBinAddr: 0x1000104A0, symSize: 0x44 }
  - { offsetInCU: 0x1A284, offset: 0x1A284, size: 0x8, addend: 0x0, symName: __ZSt10_ConstructISt6vectorIP8creatureSaIS2_EEJS4_EEvPT_DpOT0_, symObjAddr: 0xC5CC, symBinAddr: 0x100010440, symSize: 0x4C }
  - { offsetInCU: 0x1A28C, offset: 0x1A28C, size: 0x8, addend: 0x0, symName: __ZSt4moveIRSt6vectorIP8creatureSaIS2_EEEONSt16remove_referenceIT_E4typeEOS7_, symObjAddr: 0xC618, symBinAddr: 0x10001048C, symSize: 0x14 }
  - { offsetInCU: 0x1A29F, offset: 0x1A29F, size: 0x8, addend: 0x0, symName: __ZNSt6vectorIP8creatureSaIS1_EEC1EOS3_, symObjAddr: 0xC5A4, symBinAddr: 0x100010418, symSize: 0x28 }
  - { offsetInCU: 0x1A2A7, offset: 0x1A2A7, size: 0x8, addend: 0x0, symName: __ZSt10_ConstructISt6vectorIP8creatureSaIS2_EEJS4_EEvPT_DpOT0_, symObjAddr: 0xC5CC, symBinAddr: 0x100010440, symSize: 0x4C }
  - { offsetInCU: 0x1A307, offset: 0x1A307, size: 0x8, addend: 0x0, symName: __ZNSt12_Vector_baseIP8creatureSaIS1_EEC2EOS3_, symObjAddr: 0xC57C, symBinAddr: 0x1000103F0, symSize: 0x28 }
  - { offsetInCU: 0x1A30F, offset: 0x1A30F, size: 0x8, addend: 0x0, symName: __ZNSt6vectorIP8creatureSaIS1_EEC1EOS3_, symObjAddr: 0xC5A4, symBinAddr: 0x100010418, symSize: 0x28 }
  - { offsetInCU: 0x1A316, offset: 0x1A316, size: 0x8, addend: 0x0, symName: __ZNKSt13move_iteratorIPSt6vectorIP8creatureSaIS2_EEEdeEv, symObjAddr: 0xC564, symBinAddr: 0x1000103D8, symSize: 0x18 }
  - { offsetInCU: 0x1A31E, offset: 0x1A31E, size: 0x8, addend: 0x0, symName: __ZNSt12_Vector_baseIP8creatureSaIS1_EEC2EOS3_, symObjAddr: 0xC57C, symBinAddr: 0x1000103F0, symSize: 0x28 }
  - { offsetInCU: 0x1A347, offset: 0x1A347, size: 0x8, addend: 0x0, symName: __ZNSt13move_iteratorIPSt6vectorIP8creatureSaIS2_EEEppEv, symObjAddr: 0xC53C, symBinAddr: 0x1000103B0, symSize: 0x28 }
  - { offsetInCU: 0x1A34F, offset: 0x1A34F, size: 0x8, addend: 0x0, symName: __ZNKSt13move_iteratorIPSt6vectorIP8creatureSaIS2_EEEdeEv, symObjAddr: 0xC564, symBinAddr: 0x1000103D8, symSize: 0x18 }
  - { offsetInCU: 0x1A3E2, offset: 0x1A3E2, size: 0x8, addend: 0x0, symName: __ZStneIPSt6vectorIP8creatureSaIS2_EEEbRKSt13move_iteratorIT_ESA_, symObjAddr: 0xC50C, symBinAddr: 0x100010380, symSize: 0x30 }
  - { offsetInCU: 0x1A3EA, offset: 0x1A3EA, size: 0x8, addend: 0x0, symName: __ZNSt13move_iteratorIPSt6vectorIP8creatureSaIS2_EEEppEv, symObjAddr: 0xC53C, symBinAddr: 0x1000103B0, symSize: 0x28 }
  - { offsetInCU: 0x1A4B3, offset: 0x1A4B3, size: 0x8, addend: 0x0, symName: __ZSt18uninitialized_copyIN9__gnu_cxx17__normal_iteratorIPKP8creatureSt6vectorIS3_SaIS3_EEEEPS3_ET0_T_SC_SB_, symObjAddr: 0xC4D0, symBinAddr: 0x100010344, symSize: 0x3C }
  - { offsetInCU: 0x1A4BB, offset: 0x1A4BB, size: 0x8, addend: 0x0, symName: __ZStneIPSt6vectorIP8creatureSaIS2_EEEbRKSt13move_iteratorIT_ESA_, symObjAddr: 0xC50C, symBinAddr: 0x100010380, symSize: 0x30 }
  - { offsetInCU: 0x1A4EB, offset: 0x1A4EB, size: 0x8, addend: 0x0, symName: __ZSt8__fill_aIPP8creatureS1_EvT_S3_RKT0_, symObjAddr: 0xC4A0, symBinAddr: 0x100010314, symSize: 0x30 }
  - { offsetInCU: 0x1A4F3, offset: 0x1A4F3, size: 0x8, addend: 0x0, symName: __ZSt18uninitialized_copyIN9__gnu_cxx17__normal_iteratorIPKP8creatureSt6vectorIS3_SaIS3_EEEEPS3_ET0_T_SC_SB_, symObjAddr: 0xC4D0, symBinAddr: 0x100010344, symSize: 0x3C }
  - { offsetInCU: 0x1A588, offset: 0x1A588, size: 0x8, addend: 0x0, symName: __ZSt11__addressofIPNSt8__detail15_Hash_node_baseEEPT_RS3_, symObjAddr: 0xC48C, symBinAddr: 0x100010300, symSize: 0x14 }
  - { offsetInCU: 0x1A590, offset: 0x1A590, size: 0x8, addend: 0x0, symName: __ZSt8__fill_aIPP8creatureS1_EvT_S3_RKT0_, symObjAddr: 0xC4A0, symBinAddr: 0x100010314, symSize: 0x30 }
  - { offsetInCU: 0x1A569, offset: 0x1A569, size: 0x8, addend: 0x0, symName: __ZNSt15__new_allocatorINSt8__detail10_Hash_nodeISt4pairIKNSt7__cxx1112basic_stringIcSt11char_traitsIcESaIcEEES8_ELb1EEEE10deallocateEPSB_m, symObjAddr: 0xC450, symBinAddr: 0x1000102C4, symSize: 0x3C }
  - { offsetInCU: 0x1A571, offset: 0x1A571, size: 0x8, addend: 0x0, symName: __ZSt11__addressofIPNSt8__detail15_Hash_node_baseEEPT_RS3_, symObjAddr: 0xC48C, symBinAddr: 0x100010300, symSize: 0x14 }
  - { offsetInCU: 0x1A6C0, offset: 0x1A6C0, size: 0x8, addend: 0x0, symName: __ZSt9addressofINSt8__detail10_Hash_nodeISt4pairIKNSt7__cxx1112basic_stringIcSt11char_traitsIcESaIcEEES8_ELb1EEEEPT_RSC_, symObjAddr: 0xC434, symBinAddr: 0x1000102A8, symSize: 0x1C }
  - { offsetInCU: 0x1A6C8, offset: 0x1A6C8, size: 0x8, addend: 0x0, symName: __ZNSt15__new_allocatorINSt8__detail10_Hash_nodeISt4pairIKNSt7__cxx1112basic_stringIcSt11char_traitsIcESaIcEEES8_ELb1EEEE10deallocateEPSB_m, symObjAddr: 0xC450, symBinAddr: 0x1000102C4, symSize: 0x3C }
  - { offsetInCU: 0x1A60E, offset: 0x1A60E, size: 0x8, addend: 0x0, symName: __ZNSt10_HashtableINSt7__cxx1112basic_stringIcSt11char_traitsIcESaIcEEESt4pairIKS5_S5_ESaIS8_ENSt8__detail10_Select1stESt8equal_toIS5_ESt4hashIS5_ENSA_18_Mod_range_hashingENSA_20_Default_ranged_hashENSA_20_Prime_rehash_policyENSA_17_Hashtable_traitsILb1ELb0ELb1EEEE16_M_insert_uniqueIRS7_RKS8_NSA_10_AllocNodeISaINSA_10_Hash_nodeIS8_Lb1EEEEEEEES6_INSA_14_Node_iteratorIS8_Lb0ELb1EEEbEOT_OT0_RKT1_, symObjAddr: 0xC228, symBinAddr: 0x10001009C, symSize: 0x20C }
  - { offsetInCU: 0x1A616, offset: 0x1A616, size: 0x8, addend: 0x0, symName: __ZSt9addressofINSt8__detail10_Hash_nodeISt4pairIKNSt7__cxx1112basic_stringIcSt11char_traitsIcESaIcEEES8_ELb1EEEEPT_RSC_, symObjAddr: 0xC434, symBinAddr: 0x1000102A8, symSize: 0x1C }
  - { offsetInCU: 0x1A750, offset: 0x1A750, size: 0x8, addend: 0x0, symName: __ZNSt10_HashtableINSt7__cxx1112basic_stringIcSt11char_traitsIcESaIcEEESt4pairIKS5_S5_ESaIS8_ENSt8__detail10_Select1stESt8equal_toIS5_ESt4hashIS5_ENSA_18_Mod_range_hashingENSA_20_Default_ranged_hashENSA_20_Prime_rehash_policyENSA_17_Hashtable_traitsILb1ELb0ELb1EEEE14_S_forward_keyERS7_, symObjAddr: 0xC214, symBinAddr: 0x100010088, symSize: 0x14 }
  - { offsetInCU: 0x1A758, offset: 0x1A758, size: 0x8, addend: 0x0, symName: __ZNSt10_HashtableINSt7__cxx1112basic_stringIcSt11char_traitsIcESaIcEEESt4pairIKS5_S5_ESaIS8_ENSt8__detail10_Select1stESt8equal_toIS5_ESt4hashIS5_ENSA_18_Mod_range_hashingENSA_20_Default_ranged_hashENSA_20_Prime_rehash_policyENSA_17_Hashtable_traitsILb1ELb0ELb1EEEE16_M_insert_uniqueIRS7_RKS8_NSA_10_AllocNodeISaINSA_10_Hash_nodeIS8_Lb1EEEEEEEES6_INSA_14_Node_iteratorIS8_Lb0ELb1EEEbEOT_OT0_RKT1_, symObjAddr: 0xC228, symBinAddr: 0x10001009C, symSize: 0x20C }
  - { offsetInCU: 0x1A797, offset: 0x1A797, size: 0x8, addend: 0x0, symName: __ZNKSt8__detail10_Select1stclIRKSt4pairIKNSt7__cxx1112basic_stringIcSt11char_traitsIcESaIcEEES8_EEEONS0_10__1st_typeIT_E4typeEOSE_, symObjAddr: 0xC1F4, symBinAddr: 0x100010068, symSize: 0x20 }
  - { offsetInCU: 0x1A79F, offset: 0x1A79F, size: 0x8, addend: 0x0, symName: __ZNSt10_HashtableINSt7__cxx1112basic_stringIcSt11char_traitsIcESaIcEEESt4pairIKS5_S5_ESaIS8_ENSt8__detail10_Select1stESt8equal_toIS5_ESt4hashIS5_ENSA_18_Mod_range_hashingENSA_20_Default_ranged_hashENSA_20_Prime_rehash_policyENSA_17_Hashtable_traitsILb1ELb0ELb1EEEE14_S_forward_keyERS7_, symObjAddr: 0xC214, symBinAddr: 0x100010088, symSize: 0x14 }
  - { offsetInCU: 0x1A7E9, offset: 0x1A7E9, size: 0x8, addend: 0x0, symName: __ZNSt15__new_allocatorIPNSt8__detail15_Hash_node_baseEE8allocateEmPKv, symObjAddr: 0xC178, symBinAddr: 0x10000FFEC, symSize: 0x7C }
  - { offsetInCU: 0x1A7F1, offset: 0x1A7F1, size: 0x8, addend: 0x0, symName: __ZNKSt8__detail10_Select1stclIRKSt4pairIKNSt7__cxx1112basic_stringIcSt11char_traitsIcESaIcEEES8_EEEONS0_10__1st_typeIT_E4typeEOSE_, symObjAddr: 0xC1F4, symBinAddr: 0x100010068, symSize: 0x20 }
  - { offsetInCU: 0x1A95D, offset: 0x1A95D, size: 0x8, addend: 0x0, symName: __ZSt7forwardIRKSt8equal_toINSt7__cxx1112basic_stringIcSt11char_traitsIcESaIcEEEEEOT_RNSt16remove_referenceISA_E4typeE, symObjAddr: 0xC164, symBinAddr: 0x10000FFD8, symSize: 0x14 }
  - { offsetInCU: 0x1A965, offset: 0x1A965, size: 0x8, addend: 0x0, symName: __ZNSt15__new_allocatorIPNSt8__detail15_Hash_node_baseEE8allocateEmPKv, symObjAddr: 0xC178, symBinAddr: 0x10000FFEC, symSize: 0x7C }
  - { offsetInCU: 0x1A9AC, offset: 0x1A9AC, size: 0x8, addend: 0x0, symName: __ZNSt8__detail21_Hashtable_ebo_helperILi1ESt4hashINSt7__cxx1112basic_stringIcSt11char_traitsIcESaIcEEEELb1EEC2IRKS8_EEOT_, symObjAddr: 0xC140, symBinAddr: 0x10000FFB4, symSize: 0x24 }
  - { offsetInCU: 0x1A9B4, offset: 0x1A9B4, size: 0x8, addend: 0x0, symName: __ZSt7forwardIRKSt8equal_toINSt7__cxx1112basic_stringIcSt11char_traitsIcESaIcEEEEEOT_RNSt16remove_referenceISA_E4typeE, symObjAddr: 0xC164, symBinAddr: 0x10000FFD8, symSize: 0x14 }
  - { offsetInCU: 0x1AA35, offset: 0x1AA35, size: 0x8, addend: 0x0, symName: __ZSt10_ConstructISt6vectorIP8creatureSaIS2_EEJRKS4_EEvPT_DpOT0_, symObjAddr: 0xC0C4, symBinAddr: 0x10000FF38, symSize: 0x7C }
  - { offsetInCU: 0x1AA3D, offset: 0x1AA3D, size: 0x8, addend: 0x0, symName: __ZNSt8__detail21_Hashtable_ebo_helperILi1ESt4hashINSt7__cxx1112basic_stringIcSt11char_traitsIcESaIcEEEELb1EEC2IRKS8_EEOT_, symObjAddr: 0xC140, symBinAddr: 0x10000FFB4, symSize: 0x24 }
  - { offsetInCU: 0x1AA7F, offset: 0x1AA7F, size: 0x8, addend: 0x0, symName: __ZSt22__uninitialized_copy_aIPP8creatureS2_S1_ET0_T_S4_S3_RSaIT1_E, symObjAddr: 0xC094, symBinAddr: 0x10000FF08, symSize: 0x30 }
  - { offsetInCU: 0x1AA87, offset: 0x1AA87, size: 0x8, addend: 0x0, symName: __ZSt10_ConstructISt6vectorIP8creatureSaIS2_EEJRKS4_EEvPT_DpOT0_, symObjAddr: 0xC0C4, symBinAddr: 0x10000FF38, symSize: 0x7C }
  - { offsetInCU: 0x1AAE3, offset: 0x1AAE3, size: 0x8, addend: 0x0, symName: __ZSt4copyIPP8creatureS2_ET0_T_S4_S3_, symObjAddr: 0xC04C, symBinAddr: 0x10000FEC0, symSize: 0x48 }
  - { offsetInCU: 0x1AAEB, offset: 0x1AAEB, size: 0x8, addend: 0x0, symName: __ZSt22__uninitialized_copy_aIPP8creatureS2_S1_ET0_T_S4_S3_RSaIT1_E, symObjAddr: 0xC094, symBinAddr: 0x10000FF08, symSize: 0x30 }
  - { offsetInCU: 0x1AC77, offset: 0x1AC77, size: 0x8, addend: 0x0, symName: __ZSt4copyIN9__gnu_cxx17__normal_iteratorIPKP8creatureSt6vectorIS3_SaIS3_EEEENS1_IPS3_S8_EEET0_T_SD_SC_, symObjAddr: 0xC004, symBinAddr: 0x10000FE78, symSize: 0x48 }
  - { offsetInCU: 0x1AC7F, offset: 0x1AC7F, size: 0x8, addend: 0x0, symName: __ZSt4copyIPP8creatureS2_ET0_T_S4_S3_, symObjAddr: 0xC04C, symBinAddr: 0x10000FEC0, symSize: 0x48 }
  - { offsetInCU: 0x1ABFE, offset: 0x1ABFE, size: 0x8, addend: 0x0, symName: __ZNSt6vectorIP8creatureSaIS1_EE20_M_allocate_and_copyIN9__gnu_cxx17__normal_iteratorIPKS1_S3_EEEEPS1_mT_SB_, symObjAddr: 0xBF80, symBinAddr: 0x10000FDF4, symSize: 0x84 }
  - { offsetInCU: 0x1AC06, offset: 0x1AC06, size: 0x8, addend: 0x0, symName: __ZSt4copyIN9__gnu_cxx17__normal_iteratorIPKP8creatureSt6vectorIS3_SaIS3_EEEENS1_IPS3_S8_EEET0_T_SD_SC_, symObjAddr: 0xC004, symBinAddr: 0x10000FE78, symSize: 0x48 }
  - { offsetInCU: 0x1AC90, offset: 0x1AC90, size: 0x8, addend: 0x0, symName: __ZNKSt6vectorIP8creatureSaIS1_EE8capacityEv, symObjAddr: 0xBF58, symBinAddr: 0x10000FDCC, symSize: 0x28 }
  - { offsetInCU: 0x1AC98, offset: 0x1AC98, size: 0x8, addend: 0x0, symName: __ZNSt6vectorIP8creatureSaIS1_EE20_M_allocate_and_copyIN9__gnu_cxx17__normal_iteratorIPKS1_S3_EEEEPS1_mT_SB_, symObjAddr: 0xBF80, symBinAddr: 0x10000FDF4, symSize: 0x84 }
  - { offsetInCU: 0x1AD94, offset: 0x1AD94, size: 0x8, addend: 0x0, symName: __ZSt11__addressofIKSt6vectorIP8creatureSaIS2_EEEPT_RS6_, symObjAddr: 0xBF44, symBinAddr: 0x10000FDB8, symSize: 0x14 }
  - { offsetInCU: 0x1AD9C, offset: 0x1AD9C, size: 0x8, addend: 0x0, symName: __ZNKSt6vectorIP8creatureSaIS1_EE8capacityEv, symObjAddr: 0xBF58, symBinAddr: 0x10000FDCC, symSize: 0x28 }
  - { offsetInCU: 0x1AD79, offset: 0x1AD79, size: 0x8, addend: 0x0, symName: __ZNSt20__copy_move_backwardILb1ELb0ESt26random_access_iterator_tagE13__copy_move_bIPSt6vectorIP8creatureSaIS5_EES8_EET0_T_SA_S9_, symObjAddr: 0xBEBC, symBinAddr: 0x10000FD30, symSize: 0x88 }
  - { offsetInCU: 0x1AD81, offset: 0x1AD81, size: 0x8, addend: 0x0, symName: __ZSt11__addressofIKSt6vectorIP8creatureSaIS2_EEEPT_RS6_, symObjAddr: 0xBF44, symBinAddr: 0x10000FDB8, symSize: 0x14 }
  - { offsetInCU: 0x1AEB8, offset: 0x1AEB8, size: 0x8, addend: 0x0, symName: __ZSt16__do_uninit_copyISt13move_iteratorIPSt6vectorIP8creatureSaIS3_EEES6_ET0_T_S9_S8_, symObjAddr: 0xBE10, symBinAddr: 0x10000FC84, symSize: 0xAC }
  - { offsetInCU: 0x1AEC0, offset: 0x1AEC0, size: 0x8, addend: 0x0, symName: __ZNSt20__copy_move_backwardILb1ELb0ESt26random_access_iterator_tagE13__copy_move_bIPSt6vectorIP8creatureSaIS5_EES8_EET0_T_SA_S9_, symObjAddr: 0xBEBC, symBinAddr: 0x10000FD30, symSize: 0x88 }
  - { offsetInCU: 0x1AF91, offset: 0x1AF91, size: 0x8, addend: 0x0, symName: __ZSt22__uninitialized_copy_aIN9__gnu_cxx17__normal_iteratorIPKP8creatureSt6vectorIS3_SaIS3_EEEEPS3_S3_ET0_T_SC_SB_RSaIT1_E, symObjAddr: 0xBDE0, symBinAddr: 0x10000FC54, symSize: 0x30 }
  - { offsetInCU: 0x1AF99, offset: 0x1AF99, size: 0x8, addend: 0x0, symName: __ZSt16__do_uninit_copyISt13move_iteratorIPSt6vectorIP8creatureSaIS3_EEES6_ET0_T_S9_S8_, symObjAddr: 0xBE10, symBinAddr: 0x10000FC84, symSize: 0xAC }
  - { offsetInCU: 0x1AFDD, offset: 0x1AFDD, size: 0x8, addend: 0x0, symName: __ZSt10__fill_n_aIPP8creaturemS1_ET_S3_T0_RKT1_St26random_access_iterator_tag, symObjAddr: 0xBD7C, symBinAddr: 0x10000FBF0, symSize: 0x64 }
  - { offsetInCU: 0x1AFE5, offset: 0x1AFE5, size: 0x8, addend: 0x0, symName: __ZSt22__uninitialized_copy_aIN9__gnu_cxx17__normal_iteratorIPKP8creatureSt6vectorIS3_SaIS3_EEEEPS3_S3_ET0_T_SC_SB_RSaIT1_E, symObjAddr: 0xBDE0, symBinAddr: 0x10000FC54, symSize: 0x30 }
  - { offsetInCU: 0x1B023, offset: 0x1B023, size: 0x8, addend: 0x0, symName: __ZNSt15__new_allocatorIPNSt8__detail15_Hash_node_baseEE10deallocateEPS2_m, symObjAddr: 0xBD4C, symBinAddr: 0x10000FBC0, symSize: 0x30 }
  - { offsetInCU: 0x1B02B, offset: 0x1B02B, size: 0x8, addend: 0x0, symName: __ZSt10__fill_n_aIPP8creaturemS1_ET_S3_T0_RKT1_St26random_access_iterator_tag, symObjAddr: 0xBD7C, symBinAddr: 0x10000FBF0, symSize: 0x64 }
  - { offsetInCU: 0x1B0E2, offset: 0x1B0E2, size: 0x8, addend: 0x0, symName: __ZNSt15__new_allocatorIPNSt8__detail15_Hash_node_baseEED2Ev, symObjAddr: 0xBD38, symBinAddr: 0x10000FBAC, symSize: 0x14 }
  - { offsetInCU: 0x1B0EA, offset: 0x1B0EA, size: 0x8, addend: 0x0, symName: __ZNSt15__new_allocatorIPNSt8__detail15_Hash_node_baseEE10deallocateEPS2_m, symObjAddr: 0xBD4C, symBinAddr: 0x10000FBC0, symSize: 0x30 }
  - { offsetInCU: 0x1B157, offset: 0x1B157, size: 0x8, addend: 0x0, symName: __ZSt9addressofIPNSt8__detail15_Hash_node_baseEEPT_RS3_, symObjAddr: 0xBD1C, symBinAddr: 0x10000FB90, symSize: 0x1C }
  - { offsetInCU: 0x1B15F, offset: 0x1B15F, size: 0x8, addend: 0x0, symName: __ZNSt15__new_allocatorIPNSt8__detail15_Hash_node_baseEED2Ev, symObjAddr: 0xBD38, symBinAddr: 0x10000FBAC, symSize: 0x14 }
  - { offsetInCU: 0x1B17F, offset: 0x1B17F, size: 0x8, addend: 0x0, symName: __ZNSt19__ptr_traits_ptr_toIPNSt8__detail10_Hash_nodeISt4pairIKNSt7__cxx1112basic_stringIcSt11char_traitsIcESaIcEEES8_ELb1EEESB_Lb0EE10pointer_toERSB_, symObjAddr: 0xBD00, symBinAddr: 0x10000FB74, symSize: 0x1C }
  - { offsetInCU: 0x1B187, offset: 0x1B187, size: 0x8, addend: 0x0, symName: __ZSt9addressofIPNSt8__detail15_Hash_node_baseEEPT_RS3_, symObjAddr: 0xBD1C, symBinAddr: 0x10000FB90, symSize: 0x1C }
  - { offsetInCU: 0x1B1EB, offset: 0x1B1EB, size: 0x8, addend: 0x0, symName: __ZNSt8__detail21_Hashtable_ebo_helperILi0ESaINS_10_Hash_nodeISt4pairIKNSt7__cxx1112basic_stringIcSt11char_traitsIcESaIcEEES8_ELb1EEEELb1EE6_M_getEv, symObjAddr: 0xBCEC, symBinAddr: 0x10000FB60, symSize: 0x14 }
  - { offsetInCU: 0x1B1F3, offset: 0x1B1F3, size: 0x8, addend: 0x0, symName: __ZNSt19__ptr_traits_ptr_toIPNSt8__detail10_Hash_nodeISt4pairIKNSt7__cxx1112basic_stringIcSt11char_traitsIcESaIcEEES8_ELb1EEESB_Lb0EE10pointer_toERSB_, symObjAddr: 0xBD00, symBinAddr: 0x10000FB74, symSize: 0x1C }
  - { offsetInCU: 0x1B21C, offset: 0x1B21C, size: 0x8, addend: 0x0, symName: __ZNSt10_HashtableINSt7__cxx1112basic_stringIcSt11char_traitsIcESaIcEEESt4pairIKS5_S5_ESaIS8_ENSt8__detail10_Select1stESt8equal_toIS5_ESt4hashIS5_ENSA_18_Mod_range_hashingENSA_20_Default_ranged_hashENSA_20_Prime_rehash_policyENSA_17_Hashtable_traitsILb1ELb0ELb1EEEE20_M_insert_unique_auxIRKS8_NSA_10_AllocNodeISaINSA_10_Hash_nodeIS8_Lb1EEEEEEEES6_INSA_14_Node_iteratorIS8_Lb0ELb1EEEbEOT_RKT0_, symObjAddr: 0xBC90, symBinAddr: 0x10000FB04, symSize: 0x5C }
  - { offsetInCU: 0x1B224, offset: 0x1B224, size: 0x8, addend: 0x0, symName: __ZNSt8__detail21_Hashtable_ebo_helperILi0ESaINS_10_Hash_nodeISt4pairIKNSt7__cxx1112basic_stringIcSt11char_traitsIcESaIcEEES8_ELb1EEEELb1EE6_M_getEv, symObjAddr: 0xBCEC, symBinAddr: 0x10000FB60, symSize: 0x14 }
  - { offsetInCU: 0x1B291, offset: 0x1B291, size: 0x8, addend: 0x0, symName: __ZNKSt8__detail19_ConvertToValueTypeINS_10_Select1stESt4pairIKNSt7__cxx1112basic_stringIcSt11char_traitsIcESaIcEEES8_EEclERKSA_, symObjAddr: 0xBC78, symBinAddr: 0x10000FAEC, symSize: 0x18 }
  - { offsetInCU: 0x1B299, offset: 0x1B299, size: 0x8, addend: 0x0, symName: __ZNSt10_HashtableINSt7__cxx1112basic_stringIcSt11char_traitsIcESaIcEEESt4pairIKS5_S5_ESaIS8_ENSt8__detail10_Select1stESt8equal_toIS5_ESt4hashIS5_ENSA_18_Mod_range_hashingENSA_20_Default_ranged_hashENSA_20_Prime_rehash_policyENSA_17_Hashtable_traitsILb1ELb0ELb1EEEE20_M_insert_unique_auxIRKS8_NSA_10_AllocNodeISaINSA_10_Hash_nodeIS8_Lb1EEEEEEEES6_INSA_14_Node_iteratorIS8_Lb0ELb1EEEbEOT_RKT0_, symObjAddr: 0xBC90, symBinAddr: 0x10000FB04, symSize: 0x5C }
  - { offsetInCU: 0x1B3B5, offset: 0x1B3B5, size: 0x8, addend: 0x0, symName: __ZSt7forwardIRKSt4pairIKNSt7__cxx1112basic_stringIcSt11char_traitsIcESaIcEEES6_EEOT_RNSt16remove_referenceISB_E4typeE, symObjAddr: 0xBC64, symBinAddr: 0x10000FAD8, symSize: 0x14 }
  - { offsetInCU: 0x1B3BD, offset: 0x1B3BD, size: 0x8, addend: 0x0, symName: __ZNKSt8__detail19_ConvertToValueTypeINS_10_Select1stESt4pairIKNSt7__cxx1112basic_stringIcSt11char_traitsIcESaIcEEES8_EEclERKSA_, symObjAddr: 0xBC78, symBinAddr: 0x10000FAEC, symSize: 0x18 }
  - { offsetInCU: 0x1B398, offset: 0x1B398, size: 0x8, addend: 0x0, symName: __ZSt12__to_addressIPNSt8__detail15_Hash_node_baseEEPT_S4_, symObjAddr: 0xBC50, symBinAddr: 0x10000FAC4, symSize: 0x14 }
  - { offsetInCU: 0x1B3A0, offset: 0x1B3A0, size: 0x8, addend: 0x0, symName: __ZSt7forwardIRKSt4pairIKNSt7__cxx1112basic_stringIcSt11char_traitsIcESaIcEEES6_EEOT_RNSt16remove_referenceISB_E4typeE, symObjAddr: 0xBC64, symBinAddr: 0x10000FAD8, symSize: 0x14 }
  - { offsetInCU: 0x1B482, offset: 0x1B482, size: 0x8, addend: 0x0, symName: __ZNSt8__detail21_Hashtable_ebo_helperILi0ESaINS_10_Hash_nodeISt4pairIKNSt7__cxx1112basic_stringIcSt11char_traitsIcESaIcEEES8_ELb1EEEELb1EEC2ISC_EEOT_, symObjAddr: 0xBC04, symBinAddr: 0x10000FA78, symSize: 0x4C }
  - { offsetInCU: 0x1B48A, offset: 0x1B48A, size: 0x8, addend: 0x0, symName: __ZSt12__to_addressIPNSt8__detail15_Hash_node_baseEEPT_S4_, symObjAddr: 0xBC50, symBinAddr: 0x10000FAC4, symSize: 0x14 }
  - { offsetInCU: 0x1B5CA, offset: 0x1B5CA, size: 0x8, addend: 0x0, symName: __ZSt7forwardISaINSt8__detail10_Hash_nodeISt4pairIKNSt7__cxx1112basic_stringIcSt11char_traitsIcESaIcEEES8_ELb1EEEEEOT_RNSt16remove_referenceISD_E4typeE, symObjAddr: 0xBBF0, symBinAddr: 0x10000FA64, symSize: 0x14 }
  - { offsetInCU: 0x1B5D2, offset: 0x1B5D2, size: 0x8, addend: 0x0, symName: __ZNSt8__detail21_Hashtable_ebo_helperILi0ESaINS_10_Hash_nodeISt4pairIKNSt7__cxx1112basic_stringIcSt11char_traitsIcESaIcEEES8_ELb1EEEELb1EEC2ISC_EEOT_, symObjAddr: 0xBC04, symBinAddr: 0x10000FA78, symSize: 0x4C }
  - { offsetInCU: 0x1B5AC, offset: 0x1B5AC, size: 0x8, addend: 0x0, symName: __ZNSt8__detail21_Hashtable_ebo_helperILi0ESt8equal_toINSt7__cxx1112basic_stringIcSt11char_traitsIcESaIcEEEELb1EEC2IRKS8_EEOT_, symObjAddr: 0xBBCC, symBinAddr: 0x10000FA40, symSize: 0x24 }
  - { offsetInCU: 0x1B5B4, offset: 0x1B5B4, size: 0x8, addend: 0x0, symName: __ZSt7forwardISaINSt8__detail10_Hash_nodeISt4pairIKNSt7__cxx1112basic_stringIcSt11char_traitsIcESaIcEEES8_ELb1EEEEEOT_RNSt16remove_referenceISD_E4typeE, symObjAddr: 0xBBF0, symBinAddr: 0x10000FA64, symSize: 0x14 }
  - { offsetInCU: 0x1B665, offset: 0x1B665, size: 0x8, addend: 0x0, symName: __ZNSt8__detail15_Hash_code_baseINSt7__cxx1112basic_stringIcSt11char_traitsIcESaIcEEESt4pairIKS6_S6_ENS_10_Select1stESt4hashIS6_ENS_18_Mod_range_hashingENS_20_Default_ranged_hashELb1EEC2ERKSC_, symObjAddr: 0xBBA4, symBinAddr: 0x10000FA18, symSize: 0x28 }
  - { offsetInCU: 0x1B66D, offset: 0x1B66D, size: 0x8, addend: 0x0, symName: __ZNSt8__detail21_Hashtable_ebo_helperILi0ESt8equal_toINSt7__cxx1112basic_stringIcSt11char_traitsIcESaIcEEEELb1EEC2IRKS8_EEOT_, symObjAddr: 0xBBCC, symBinAddr: 0x10000FA40, symSize: 0x24 }
  - { offsetInCU: 0x1B6DC, offset: 0x1B6DC, size: 0x8, addend: 0x0, symName: __ZSt18__do_uninit_fill_nIPSt6vectorIP8creatureSaIS2_EEmS4_ET_S6_T0_RKT1_, symObjAddr: 0xBB14, symBinAddr: 0x10000F988, symSize: 0x90 }
  - { offsetInCU: 0x1B6E4, offset: 0x1B6E4, size: 0x8, addend: 0x0, symName: __ZNSt8__detail15_Hash_code_baseINSt7__cxx1112basic_stringIcSt11char_traitsIcESaIcEEESt4pairIKS6_S6_ENS_10_Select1stESt4hashIS6_ENS_18_Mod_range_hashingENS_20_Default_ranged_hashELb1EEC2ERKSC_, symObjAddr: 0xBBA4, symBinAddr: 0x10000FA18, symSize: 0x28 }
  - { offsetInCU: 0x1B6DD, offset: 0x1B6DD, size: 0x8, addend: 0x0, symName: __ZNSt6vectorIP8creatureSaIS1_EEaSERKS3_, symObjAddr: 0xB7CC, symBinAddr: 0x10000F640, symSize: 0x348 }
  - { offsetInCU: 0x1B6E5, offset: 0x1B6E5, size: 0x8, addend: 0x0, symName: __ZSt18__do_uninit_fill_nIPSt6vectorIP8creatureSaIS2_EEmS4_ET_S6_T0_RKT1_, symObjAddr: 0xBB14, symBinAddr: 0x10000F988, symSize: 0x90 }
  - { offsetInCU: 0x1B942, offset: 0x1B942, size: 0x8, addend: 0x0, symName: __ZSt23__copy_move_backward_a2ILb1EPSt6vectorIP8creatureSaIS2_EES5_ET1_T0_S7_S6_, symObjAddr: 0xB7A0, symBinAddr: 0x10000F614, symSize: 0x2C }
  - { offsetInCU: 0x1B94A, offset: 0x1B94A, size: 0x8, addend: 0x0, symName: __ZNSt6vectorIP8creatureSaIS1_EEaSERKS3_, symObjAddr: 0xB7CC, symBinAddr: 0x10000F640, symSize: 0x348 }
  - { offsetInCU: 0x1B930, offset: 0x1B930, size: 0x8, addend: 0x0, symName: __ZNSt20__uninitialized_copyILb0EE13__uninit_copyISt13move_iteratorIPSt6vectorIP8creatureSaIS5_EEES8_EET0_T_SB_SA_, symObjAddr: 0xB774, symBinAddr: 0x10000F5E8, symSize: 0x2C }
  - { offsetInCU: 0x1B938, offset: 0x1B938, size: 0x8, addend: 0x0, symName: __ZSt23__copy_move_backward_a2ILb1EPSt6vectorIP8creatureSaIS2_EES5_ET1_T0_S7_S6_, symObjAddr: 0xB7A0, symBinAddr: 0x10000F614, symSize: 0x2C }
  - { offsetInCU: 0x1B9FA, offset: 0x1B9FA, size: 0x8, addend: 0x0, symName: __ZNSt6vectorIP8creatureSaIS1_EEC1ERKS3_, symObjAddr: 0xB660, symBinAddr: 0x10000F4D4, symSize: 0x114 }
  - { offsetInCU: 0x1BA02, offset: 0x1BA02, size: 0x8, addend: 0x0, symName: __ZNSt20__uninitialized_copyILb0EE13__uninit_copyISt13move_iteratorIPSt6vectorIP8creatureSaIS5_EEES8_EET0_T_SB_SA_, symObjAddr: 0xB774, symBinAddr: 0x10000F5E8, symSize: 0x2C }
  - { offsetInCU: 0x1BB6F, offset: 0x1BB6F, size: 0x8, addend: 0x0, symName: __ZSt6fill_nIPP8creaturemS1_ET_S3_T0_RKT1_, symObjAddr: 0xB618, symBinAddr: 0x10000F48C, symSize: 0x48 }
  - { offsetInCU: 0x1BB77, offset: 0x1BB77, size: 0x8, addend: 0x0, symName: __ZNSt6vectorIP8creatureSaIS1_EEC1ERKS3_, symObjAddr: 0xB660, symBinAddr: 0x10000F4D4, symSize: 0x114 }
  - { offsetInCU: 0x1BC7D, offset: 0x1BC7D, size: 0x8, addend: 0x0, symName: __ZNSt19__ptr_traits_ptr_toIPPNSt8__detail15_Hash_node_baseES2_Lb0EE10pointer_toERS2_, symObjAddr: 0xB5FC, symBinAddr: 0x10000F470, symSize: 0x1C }
  - { offsetInCU: 0x1BC85, offset: 0x1BC85, size: 0x8, addend: 0x0, symName: __ZSt6fill_nIPP8creaturemS1_ET_S3_T0_RKT1_, symObjAddr: 0xB618, symBinAddr: 0x10000F48C, symSize: 0x48 }
  - { offsetInCU: 0x1BCB0, offset: 0x1BCB0, size: 0x8, addend: 0x0, symName: __ZNSt8__detail16_Hashtable_allocISaINS_10_Hash_nodeISt4pairIKNSt7__cxx1112basic_stringIcSt11char_traitsIcESaIcEEES8_ELb1EEEEE22_M_deallocate_node_ptrEPSB_, symObjAddr: 0xB5A4, symBinAddr: 0x10000F418, symSize: 0x58 }
  - { offsetInCU: 0x1BCB8, offset: 0x1BCB8, size: 0x8, addend: 0x0, symName: __ZNSt19__ptr_traits_ptr_toIPPNSt8__detail15_Hash_node_baseES2_Lb0EE10pointer_toERS2_, symObjAddr: 0xB5FC, symBinAddr: 0x10000F470, symSize: 0x1C }
  - { offsetInCU: 0x1BD89, offset: 0x1BD89, size: 0x8, addend: 0x0, symName: __ZNSt8__detail16_Hashtable_allocISaINS_10_Hash_nodeISt4pairIKNSt7__cxx1112basic_stringIcSt11char_traitsIcESaIcEEES8_ELb1EEEEE17_M_node_allocatorEv, symObjAddr: 0xB588, symBinAddr: 0x10000F3FC, symSize: 0x1C }
  - { offsetInCU: 0x1BD91, offset: 0x1BD91, size: 0x8, addend: 0x0, symName: __ZNSt8__detail16_Hashtable_allocISaINS_10_Hash_nodeISt4pairIKNSt7__cxx1112basic_stringIcSt11char_traitsIcESaIcEEES8_ELb1EEEEE22_M_deallocate_node_ptrEPSB_, symObjAddr: 0xB5A4, symBinAddr: 0x10000F418, symSize: 0x58 }
  - { offsetInCU: 0x1BDBA, offset: 0x1BDBA, size: 0x8, addend: 0x0, symName: __ZNSt10_HashtableINSt7__cxx1112basic_stringIcSt11char_traitsIcESaIcEEESt4pairIKS5_S5_ESaIS8_ENSt8__detail10_Select1stESt8equal_toIS5_ESt4hashIS5_ENSA_18_Mod_range_hashingENSA_20_Default_ranged_hashENSA_20_Prime_rehash_policyENSA_17_Hashtable_traitsILb1ELb0ELb1EEEE9_M_insertIRKS8_NSA_10_AllocNodeISaINSA_10_Hash_nodeIS8_Lb1EEEEEEEES6_INSA_14_Node_iteratorIS8_Lb0ELb1EEEbEOT_RKT0_St17integral_constantIbLb1EE, symObjAddr: 0xB544, symBinAddr: 0x10000F3B8, symSize: 0x44 }
  - { offsetInCU: 0x1BDC2, offset: 0x1BDC2, size: 0x8, addend: 0x0, symName: __ZNSt8__detail16_Hashtable_allocISaINS_10_Hash_nodeISt4pairIKNSt7__cxx1112basic_stringIcSt11char_traitsIcESaIcEEES8_ELb1EEEEE17_M_node_allocatorEv, symObjAddr: 0xB588, symBinAddr: 0x10000F3FC, symSize: 0x1C }
  - { offsetInCU: 0x1BE3C, offset: 0x1BE3C, size: 0x8, addend: 0x0, symName: __ZNSt8__detail16_Hashtable_allocISaINS_10_Hash_nodeISt4pairIKNSt7__cxx1112basic_stringIcSt11char_traitsIcESaIcEEES8_ELb1EEEEE19_M_allocate_bucketsEm, symObjAddr: 0xB48C, symBinAddr: 0x10000F300, symSize: 0xB8 }
  - { offsetInCU: 0x1BE44, offset: 0x1BE44, size: 0x8, addend: 0x0, symName: __ZNSt10_HashtableINSt7__cxx1112basic_stringIcSt11char_traitsIcESaIcEEESt4pairIKS5_S5_ESaIS8_ENSt8__detail10_Select1stESt8equal_toIS5_ESt4hashIS5_ENSA_18_Mod_range_hashingENSA_20_Default_ranged_hashENSA_20_Prime_rehash_policyENSA_17_Hashtable_traitsILb1ELb0ELb1EEEE9_M_insertIRKS8_NSA_10_AllocNodeISaINSA_10_Hash_nodeIS8_Lb1EEEEEEEES6_INSA_14_Node_iteratorIS8_Lb0ELb1EEEbEOT_RKT0_St17integral_constantIbLb1EE, symObjAddr: 0xB544, symBinAddr: 0x10000F3B8, symSize: 0x44 }
  - { offsetInCU: 0x1C023, offset: 0x1C023, size: 0x8, addend: 0x0, symName: __ZNSt27_Enable_default_constructorILb1ENSt8__detail15_Hash_node_baseEEC2ESt31_Enable_default_constructor_tag, symObjAddr: 0xB474, symBinAddr: 0x10000F2E8, symSize: 0x18 }
  - { offsetInCU: 0x1C02B, offset: 0x1C02B, size: 0x8, addend: 0x0, symName: __ZNSt8__detail16_Hashtable_allocISaINS_10_Hash_nodeISt4pairIKNSt7__cxx1112basic_stringIcSt11char_traitsIcESaIcEEES8_ELb1EEEEE19_M_allocate_bucketsEm, symObjAddr: 0xB48C, symBinAddr: 0x10000F300, symSize: 0xB8 }
  - { offsetInCU: 0x1C0B6, offset: 0x1C0B6, size: 0x8, addend: 0x0, symName: __ZNSt8__detail16_Hashtable_allocISaINS_10_Hash_nodeISt4pairIKNSt7__cxx1112basic_stringIcSt11char_traitsIcESaIcEEES8_ELb1EEEEEC2ISC_EEOT_, symObjAddr: 0xB444, symBinAddr: 0x10000F2B8, symSize: 0x30 }
  - { offsetInCU: 0x1C0BE, offset: 0x1C0BE, size: 0x8, addend: 0x0, symName: __ZNSt27_Enable_default_constructorILb1ENSt8__detail15_Hash_node_baseEEC2ESt31_Enable_default_constructor_tag, symObjAddr: 0xB474, symBinAddr: 0x10000F2E8, symSize: 0x18 }
  - { offsetInCU: 0x1C1AC, offset: 0x1C1AC, size: 0x8, addend: 0x0, symName: __ZNSt8__detail15_Hashtable_baseINSt7__cxx1112basic_stringIcSt11char_traitsIcESaIcEEESt4pairIKS6_S6_ENS_10_Select1stESt8equal_toIS6_ESt4hashIS6_ENS_18_Mod_range_hashingENS_20_Default_ranged_hashENS_17_Hashtable_traitsILb1ELb0ELb1EEEEC2ERKSE_RKSC_, symObjAddr: 0xB40C, symBinAddr: 0x10000F280, symSize: 0x38 }
  - { offsetInCU: 0x1C1B4, offset: 0x1C1B4, size: 0x8, addend: 0x0, symName: __ZNSt8__detail16_Hashtable_allocISaINS_10_Hash_nodeISt4pairIKNSt7__cxx1112basic_stringIcSt11char_traitsIcESaIcEEES8_ELb1EEEEEC2ISC_EEOT_, symObjAddr: 0xB444, symBinAddr: 0x10000F2B8, symSize: 0x30 }
  - { offsetInCU: 0x1C131, offset: 0x1C131, size: 0x8, addend: 0x0, symName: __ZNSt15__new_allocatorISt6vectorIP8creatureSaIS2_EEE8allocateEmPKv, symObjAddr: 0xB37C, symBinAddr: 0x10000F1F0, symSize: 0x90 }
  - { offsetInCU: 0x1C139, offset: 0x1C139, size: 0x8, addend: 0x0, symName: __ZNSt8__detail15_Hashtable_baseINSt7__cxx1112basic_stringIcSt11char_traitsIcESaIcEEESt4pairIKS6_S6_ENS_10_Select1stESt8equal_toIS6_ESt4hashIS6_ENS_18_Mod_range_hashingENS_20_Default_ranged_hashENS_17_Hashtable_traitsILb1ELb0ELb1EEEEC2ERKSE_RKSC_, symObjAddr: 0xB40C, symBinAddr: 0x10000F280, symSize: 0x38 }
  - { offsetInCU: 0x1C1BE, offset: 0x1C1BE, size: 0x8, addend: 0x0, symName: __ZNKSt12_Vector_baseISt6vectorIP8creatureSaIS2_EESaIS4_EE19_M_get_Tp_allocatorEv, symObjAddr: 0xB368, symBinAddr: 0x10000F1DC, symSize: 0x14 }
  - { offsetInCU: 0x1C1C6, offset: 0x1C1C6, size: 0x8, addend: 0x0, symName: __ZNSt15__new_allocatorISt6vectorIP8creatureSaIS2_EEE8allocateEmPKv, symObjAddr: 0xB37C, symBinAddr: 0x10000F1F0, symSize: 0x90 }
  - { offsetInCU: 0x1C1EF, offset: 0x1C1EF, size: 0x8, addend: 0x0, symName: __ZNSt6vectorIS_IP8creatureSaIS1_EESaIS3_EE11_S_max_sizeERKS4_, symObjAddr: 0xB30C, symBinAddr: 0x10000F180, symSize: 0x5C }
  - { offsetInCU: 0x1C1F7, offset: 0x1C1F7, size: 0x8, addend: 0x0, symName: __ZNKSt12_Vector_baseISt6vectorIP8creatureSaIS2_EESaIS4_EE19_M_get_Tp_allocatorEv, symObjAddr: 0xB368, symBinAddr: 0x10000F1DC, symSize: 0x14 }
  - { offsetInCU: 0x1C2C2, offset: 0x1C2C2, size: 0x8, addend: 0x0, symName: __ZNSt22__uninitialized_fill_nILb0EE15__uninit_fill_nIPSt6vectorIP8creatureSaIS4_EEmS6_EET_S8_T0_RKT1_, symObjAddr: 0xB2E0, symBinAddr: 0x10000F154, symSize: 0x2C }
  - { offsetInCU: 0x1C2CA, offset: 0x1C2CA, size: 0x8, addend: 0x0, symName: __ZNSt6vectorIS_IP8creatureSaIS1_EESaIS3_EE11_S_max_sizeERKS4_, symObjAddr: 0xB30C, symBinAddr: 0x10000F180, symSize: 0x5C }
  - { offsetInCU: 0x1C405, offset: 0x1C405, size: 0x8, addend: 0x0, symName: __ZSt9__fill_a1IPSt6vectorIP8creatureSaIS2_EES4_EN9__gnu_cxx11__enable_ifIXntsrSt11__is_scalarIT0_E7__valueEvE6__typeET_SD_RKS9_, symObjAddr: 0xB290, symBinAddr: 0x10000F104, symSize: 0x50 }
  - { offsetInCU: 0x1C40D, offset: 0x1C40D, size: 0x8, addend: 0x0, symName: __ZNSt22__uninitialized_fill_nILb0EE15__uninit_fill_nIPSt6vectorIP8creatureSaIS4_EEmS6_EET_S8_T0_RKT1_, symObjAddr: 0xB2E0, symBinAddr: 0x10000F154, symSize: 0x2C }
  - { offsetInCU: 0x1C42B, offset: 0x1C42B, size: 0x8, addend: 0x0, symName: __ZSt12__niter_wrapIPSt6vectorIP8creatureSaIS2_EEET_RKS6_S6_, symObjAddr: 0xB278, symBinAddr: 0x10000F0EC, symSize: 0x18 }
  - { offsetInCU: 0x1C433, offset: 0x1C433, size: 0x8, addend: 0x0, symName: __ZSt9__fill_a1IPSt6vectorIP8creatureSaIS2_EES4_EN9__gnu_cxx11__enable_ifIXntsrSt11__is_scalarIT0_E7__valueEvE6__typeET_SD_RKS9_, symObjAddr: 0xB290, symBinAddr: 0x10000F104, symSize: 0x50 }
  - { offsetInCU: 0x1C4C4, offset: 0x1C4C4, size: 0x8, addend: 0x0, symName: __ZSt23__copy_move_backward_a1ILb1EPSt6vectorIP8creatureSaIS2_EES5_ET1_T0_S7_S6_, symObjAddr: 0xB24C, symBinAddr: 0x10000F0C0, symSize: 0x2C }
  - { offsetInCU: 0x1C4CC, offset: 0x1C4CC, size: 0x8, addend: 0x0, symName: __ZSt12__niter_wrapIPSt6vectorIP8creatureSaIS2_EEET_RKS6_S6_, symObjAddr: 0xB278, symBinAddr: 0x10000F0EC, symSize: 0x18 }
  - { offsetInCU: 0x1C514, offset: 0x1C514, size: 0x8, addend: 0x0, symName: __ZSt12__niter_baseIPSt6vectorIP8creatureSaIS2_EEET_S6_, symObjAddr: 0xB238, symBinAddr: 0x10000F0AC, symSize: 0x14 }
  - { offsetInCU: 0x1C51C, offset: 0x1C51C, size: 0x8, addend: 0x0, symName: __ZSt23__copy_move_backward_a1ILb1EPSt6vectorIP8creatureSaIS2_EES5_ET1_T0_S7_S6_, symObjAddr: 0xB24C, symBinAddr: 0x10000F0C0, symSize: 0x2C }
  - { offsetInCU: 0x1C5B6, offset: 0x1C5B6, size: 0x8, addend: 0x0, symName: __ZSt18uninitialized_copyISt13move_iteratorIPSt6vectorIP8creatureSaIS3_EEES6_ET0_T_S9_S8_, symObjAddr: 0xB204, symBinAddr: 0x10000F078, symSize: 0x34 }
  - { offsetInCU: 0x1C5BE, offset: 0x1C5BE, size: 0x8, addend: 0x0, symName: __ZSt12__niter_baseIPSt6vectorIP8creatureSaIS2_EEET_S6_, symObjAddr: 0xB238, symBinAddr: 0x10000F0AC, symSize: 0x14 }
  - { offsetInCU: 0x1C619, offset: 0x1C619, size: 0x8, addend: 0x0, symName: __ZNSt13move_iteratorIPSt6vectorIP8creatureSaIS2_EEEC1ES5_, symObjAddr: 0xB1D4, symBinAddr: 0x10000F048, symSize: 0x30 }
  - { offsetInCU: 0x1C621, offset: 0x1C621, size: 0x8, addend: 0x0, symName: __ZSt18uninitialized_copyISt13move_iteratorIPSt6vectorIP8creatureSaIS3_EEES6_ET0_T_S9_S8_, symObjAddr: 0xB204, symBinAddr: 0x10000F078, symSize: 0x34 }
  - { offsetInCU: 0x1C68D, offset: 0x1C68D, size: 0x8, addend: 0x0, symName: __ZSt4moveIRPSt6vectorIP8creatureSaIS2_EEEONSt16remove_referenceIT_E4typeEOS8_, symObjAddr: 0xB1C0, symBinAddr: 0x10000F034, symSize: 0x14 }
  - { offsetInCU: 0x1C695, offset: 0x1C695, size: 0x8, addend: 0x0, symName: __ZNSt13move_iteratorIPSt6vectorIP8creatureSaIS2_EEEC1ES5_, symObjAddr: 0xB1D4, symBinAddr: 0x10000F048, symSize: 0x30 }
  - { offsetInCU: 0x1C70C, offset: 0x1C70C, size: 0x8, addend: 0x0, symName: __ZNSt22__uninitialized_fill_nILb1EE15__uninit_fill_nIPP8creaturemS3_EET_S5_T0_RKT1_, symObjAddr: 0xB194, symBinAddr: 0x10000F008, symSize: 0x2C }
  - { offsetInCU: 0x1C714, offset: 0x1C714, size: 0x8, addend: 0x0, symName: __ZSt4moveIRPSt6vectorIP8creatureSaIS2_EEEONSt16remove_referenceIT_E4typeEOS8_, symObjAddr: 0xB1C0, symBinAddr: 0x10000F034, symSize: 0x14 }
  - { offsetInCU: 0x1C7FE, offset: 0x1C7FE, size: 0x8, addend: 0x0, symName: __ZSt8_DestroyISt6vectorIP8creatureSaIS2_EEEvPT_, symObjAddr: 0xB174, symBinAddr: 0x10000EFE8, symSize: 0x20 }
  - { offsetInCU: 0x1C806, offset: 0x1C806, size: 0x8, addend: 0x0, symName: __ZNSt22__uninitialized_fill_nILb1EE15__uninit_fill_nIPP8creaturemS3_EET_S5_T0_RKT1_, symObjAddr: 0xB194, symBinAddr: 0x10000F008, symSize: 0x2C }
  - { offsetInCU: 0x1C850, offset: 0x1C850, size: 0x8, addend: 0x0, symName: __ZSt11__addressofISt6vectorIP8creatureSaIS2_EEEPT_RS5_, symObjAddr: 0xB160, symBinAddr: 0x10000EFD4, symSize: 0x14 }
  - { offsetInCU: 0x1C858, offset: 0x1C858, size: 0x8, addend: 0x0, symName: __ZSt8_DestroyISt6vectorIP8creatureSaIS2_EEEvPT_, symObjAddr: 0xB174, symBinAddr: 0x10000EFE8, symSize: 0x20 }
  - { offsetInCU: 0x1C83C, offset: 0x1C83C, size: 0x8, addend: 0x0, symName: __ZNSt6chrono20__duration_cast_implINS_8durationIxSt5ratioILl1ELl1000EEEES2_ILl1000ELl1EExLb0ELb1EE6__castIxS2_ILl1ELl1EEEES4_RKNS1_IT_T0_EE, symObjAddr: 0xB114, symBinAddr: 0x10000EF88, symSize: 0x4C }
  - { offsetInCU: 0x1C844, offset: 0x1C844, size: 0x8, addend: 0x0, symName: __ZSt11__addressofISt6vectorIP8creatureSaIS2_EEEPT_RS5_, symObjAddr: 0xB160, symBinAddr: 0x10000EFD4, symSize: 0x14 }
  - { offsetInCU: 0x1C94C, offset: 0x1C94C, size: 0x8, addend: 0x0, symName: __ZSt14__relocate_a_1IP8creatureS1_ENSt9enable_ifIXsrSt24__is_bitwise_relocatableIT_vE5valueEPS4_E4typeES6_S6_S6_RSaIT0_E, symObjAddr: 0xB0AC, symBinAddr: 0x10000EF20, symSize: 0x68 }
  - { offsetInCU: 0x1C954, offset: 0x1C954, size: 0x8, addend: 0x0, symName: __ZNSt6chrono20__duration_cast_implINS_8durationIxSt5ratioILl1ELl1000EEEES2_ILl1000ELl1EExLb0ELb1EE6__castIxS2_ILl1ELl1EEEES4_RKNS1_IT_T0_EE, symObjAddr: 0xB114, symBinAddr: 0x10000EF88, symSize: 0x4C }
  - { offsetInCU: 0x1C99B, offset: 0x1C99B, size: 0x8, addend: 0x0, symName: __ZSt12__niter_baseIPP8creatureET_S3_, symObjAddr: 0xB098, symBinAddr: 0x10000EF0C, symSize: 0x14 }
  - { offsetInCU: 0x1C9A3, offset: 0x1C9A3, size: 0x8, addend: 0x0, symName: __ZSt14__relocate_a_1IP8creatureS1_ENSt9enable_ifIXsrSt24__is_bitwise_relocatableIT_vE5valueEPS4_E4typeES6_S6_S6_RSaIT0_E, symObjAddr: 0xB0AC, symBinAddr: 0x10000EF20, symSize: 0x68 }
  - { offsetInCU: 0x1C9A6, offset: 0x1C9A6, size: 0x8, addend: 0x0, symName: __ZNSt15__new_allocatorIP8creatureE8allocateEmPKv, symObjAddr: 0xB01C, symBinAddr: 0x10000EE90, symSize: 0x7C }
  - { offsetInCU: 0x1C9AE, offset: 0x1C9AE, size: 0x8, addend: 0x0, symName: __ZSt12__niter_baseIPP8creatureET_S3_, symObjAddr: 0xB098, symBinAddr: 0x10000EF0C, symSize: 0x14 }
  - { offsetInCU: 0x1CA33, offset: 0x1CA33, size: 0x8, addend: 0x0, symName: __ZNKSt12_Vector_baseIP8creatureSaIS1_EE19_M_get_Tp_allocatorEv, symObjAddr: 0xB008, symBinAddr: 0x10000EE7C, symSize: 0x14 }
  - { offsetInCU: 0x1CA3B, offset: 0x1CA3B, size: 0x8, addend: 0x0, symName: __ZNSt15__new_allocatorIP8creatureE8allocateEmPKv, symObjAddr: 0xB01C, symBinAddr: 0x10000EE90, symSize: 0x7C }
  - { offsetInCU: 0x1CA64, offset: 0x1CA64, size: 0x8, addend: 0x0, symName: __ZNSt8__detail19_Node_iterator_baseISt4pairIKNSt7__cxx1112basic_stringIcSt11char_traitsIcESaIcEEES7_ELb1EE7_M_incrEv, symObjAddr: 0xAFD8, symBinAddr: 0x10000EE4C, symSize: 0x30 }
  - { offsetInCU: 0x1CA6C, offset: 0x1CA6C, size: 0x8, addend: 0x0, symName: __ZNKSt12_Vector_baseIP8creatureSaIS1_EE19_M_get_Tp_allocatorEv, symObjAddr: 0xB008, symBinAddr: 0x10000EE7C, symSize: 0x14 }
  - { offsetInCU: 0x1CB4A, offset: 0x1CB4A, size: 0x8, addend: 0x0, symName: __ZNSt8__detail19_Node_iterator_baseISt4pairIKNSt7__cxx1112basic_stringIcSt11char_traitsIcESaIcEEES7_ELb1EEC2EPNS_10_Hash_nodeIS9_Lb1EEE, symObjAddr: 0xAFB4, symBinAddr: 0x10000EE28, symSize: 0x24 }
  - { offsetInCU: 0x1CB52, offset: 0x1CB52, size: 0x8, addend: 0x0, symName: __ZNSt8__detail19_Node_iterator_baseISt4pairIKNSt7__cxx1112basic_stringIcSt11char_traitsIcESaIcEEES7_ELb1EE7_M_incrEv, symObjAddr: 0xAFD8, symBinAddr: 0x10000EE4C, symSize: 0x30 }
  - { offsetInCU: 0x1CAFF, offset: 0x1CAFF, size: 0x8, addend: 0x0, symName: __ZNSt8__detail16_Hashtable_allocISaINS_10_Hash_nodeISt4pairIKNSt7__cxx1112basic_stringIcSt11char_traitsIcESaIcEEES8_ELb1EEEEE21_M_deallocate_bucketsEPPNS_15_Hash_node_baseEm, symObjAddr: 0xAF3C, symBinAddr: 0x10000EDB0, symSize: 0x78 }
  - { offsetInCU: 0x1CB07, offset: 0x1CB07, size: 0x8, addend: 0x0, symName: __ZNSt8__detail19_Node_iterator_baseISt4pairIKNSt7__cxx1112basic_stringIcSt11char_traitsIcESaIcEEES7_ELb1EEC2EPNS_10_Hash_nodeIS9_Lb1EEE, symObjAddr: 0xAFB4, symBinAddr: 0x10000EE28, symSize: 0x24 }
  - { offsetInCU: 0x1CC3F, offset: 0x1CC3F, size: 0x8, addend: 0x0, symName: __ZNKSt10_HashtableINSt7__cxx1112basic_stringIcSt11char_traitsIcESaIcEEESt4pairIKS5_S5_ESaIS8_ENSt8__detail10_Select1stESt8equal_toIS5_ESt4hashIS5_ENSA_18_Mod_range_hashingENSA_20_Default_ranged_hashENSA_20_Prime_rehash_policyENSA_17_Hashtable_traitsILb1ELb0ELb1EEEE21_M_uses_single_bucketEPPNSA_15_Hash_node_baseE, symObjAddr: 0xAF00, symBinAddr: 0x10000ED74, symSize: 0x3C }
  - { offsetInCU: 0x1CC47, offset: 0x1CC47, size: 0x8, addend: 0x0, symName: __ZNSt8__detail16_Hashtable_allocISaINS_10_Hash_nodeISt4pairIKNSt7__cxx1112basic_stringIcSt11char_traitsIcESaIcEEES8_ELb1EEEEE21_M_deallocate_bucketsEPPNS_15_Hash_node_baseEm, symObjAddr: 0xAF3C, symBinAddr: 0x10000EDB0, symSize: 0x78 }
  - { offsetInCU: 0x1CC85, offset: 0x1CC85, size: 0x8, addend: 0x0, symName: __ZNSt8__detail16_Hashtable_allocISaINS_10_Hash_nodeISt4pairIKNSt7__cxx1112basic_stringIcSt11char_traitsIcESaIcEEES8_ELb1EEEEE18_M_deallocate_nodeEPSB_, symObjAddr: 0xAE90, symBinAddr: 0x10000ED04, symSize: 0x70 }
  - { offsetInCU: 0x1CC8D, offset: 0x1CC8D, size: 0x8, addend: 0x0, symName: __ZNKSt10_HashtableINSt7__cxx1112basic_stringIcSt11char_traitsIcESaIcEEESt4pairIKS5_S5_ESaIS8_ENSt8__detail10_Select1stESt8equal_toIS5_ESt4hashIS5_ENSA_18_Mod_range_hashingENSA_20_Default_ranged_hashENSA_20_Prime_rehash_policyENSA_17_Hashtable_traitsILb1ELb0ELb1EEEE21_M_uses_single_bucketEPPNSA_15_Hash_node_baseE, symObjAddr: 0xAF00, symBinAddr: 0x10000ED74, symSize: 0x3C }
  - { offsetInCU: 0x1CD33, offset: 0x1CD33, size: 0x8, addend: 0x0, symName: __ZNKSt8__detail10_Hash_nodeISt4pairIKNSt7__cxx1112basic_stringIcSt11char_traitsIcESaIcEEES7_ELb1EE7_M_nextEv, symObjAddr: 0xAE78, symBinAddr: 0x10000ECEC, symSize: 0x18 }
  - { offsetInCU: 0x1CD3B, offset: 0x1CD3B, size: 0x8, addend: 0x0, symName: __ZNSt8__detail16_Hashtable_allocISaINS_10_Hash_nodeISt4pairIKNSt7__cxx1112basic_stringIcSt11char_traitsIcESaIcEEES8_ELb1EEEEE18_M_deallocate_nodeEPSB_, symObjAddr: 0xAE90, symBinAddr: 0x10000ED04, symSize: 0x70 }
  - { offsetInCU: 0x1CD64, offset: 0x1CD64, size: 0x8, addend: 0x0, symName: __ZNSt8__detail12_Insert_baseINSt7__cxx1112basic_stringIcSt11char_traitsIcESaIcEEESt4pairIKS6_S6_ESaIS9_ENS_10_Select1stESt8equal_toIS6_ESt4hashIS6_ENS_18_Mod_range_hashingENS_20_Default_ranged_hashENS_20_Prime_rehash_policyENS_17_Hashtable_traitsILb1ELb0ELb1EEEE15_M_insert_rangeIPKS9_NS_10_AllocNodeISaINS_10_Hash_nodeIS9_Lb1EEEEEEEEvT_SU_RKT0_St17integral_constantIbLb1EE, symObjAddr: 0xAE04, symBinAddr: 0x10000EC78, symSize: 0x74 }
  - { offsetInCU: 0x1CD6C, offset: 0x1CD6C, size: 0x8, addend: 0x0, symName: __ZNKSt8__detail10_Hash_nodeISt4pairIKNSt7__cxx1112basic_stringIcSt11char_traitsIcESaIcEEES7_ELb1EE7_M_nextEv, symObjAddr: 0xAE78, symBinAddr: 0x10000ECEC, symSize: 0x18 }
  - { offsetInCU: 0x1CEDB, offset: 0x1CEDB, size: 0x8, addend: 0x0, symName: __ZNSt8__detail10_AllocNodeISaINS_10_Hash_nodeISt4pairIKNSt7__cxx1112basic_stringIcSt11char_traitsIcESaIcEEES8_ELb1EEEEEC1ERNS_16_Hashtable_allocISC_EE, symObjAddr: 0xADE0, symBinAddr: 0x10000EC54, symSize: 0x24 }
  - { offsetInCU: 0x1CEE3, offset: 0x1CEE3, size: 0x8, addend: 0x0, symName: __ZNSt8__detail12_Insert_baseINSt7__cxx1112basic_stringIcSt11char_traitsIcESaIcEEESt4pairIKS6_S6_ESaIS9_ENS_10_Select1stESt8equal_toIS6_ESt4hashIS6_ENS_18_Mod_range_hashingENS_20_Default_ranged_hashENS_20_Prime_rehash_policyENS_17_Hashtable_traitsILb1ELb0ELb1EEEE15_M_insert_rangeIPKS9_NS_10_AllocNodeISaINS_10_Hash_nodeIS9_Lb1EEEEEEEEvT_SU_RKT0_St17integral_constantIbLb1EE, symObjAddr: 0xAE04, symBinAddr: 0x10000EC78, symSize: 0x74 }
  - { offsetInCU: 0x1CE81, offset: 0x1CE81, size: 0x8, addend: 0x0, symName: __ZNSt8__detail12_Insert_baseINSt7__cxx1112basic_stringIcSt11char_traitsIcESaIcEEESt4pairIKS6_S6_ESaIS9_ENS_10_Select1stESt8equal_toIS6_ESt4hashIS6_ENS_18_Mod_range_hashingENS_20_Default_ranged_hashENS_20_Prime_rehash_policyENS_17_Hashtable_traitsILb1ELb0ELb1EEEE20_M_conjure_hashtableEv, symObjAddr: 0xADCC, symBinAddr: 0x10000EC40, symSize: 0x14 }
  - { offsetInCU: 0x1CE89, offset: 0x1CE89, size: 0x8, addend: 0x0, symName: __ZNSt8__detail10_AllocNodeISaINS_10_Hash_nodeISt4pairIKNSt7__cxx1112basic_stringIcSt11char_traitsIcESaIcEEES8_ELb1EEEEEC1ERNS_16_Hashtable_allocISC_EE, symObjAddr: 0xADE0, symBinAddr: 0x10000EC54, symSize: 0x24 }
  - { offsetInCU: 0x1CEB2, offset: 0x1CEB2, size: 0x8, addend: 0x0, symName: __ZNSt10_HashtableINSt7__cxx1112basic_stringIcSt11char_traitsIcESaIcEEESt4pairIKS5_S5_ESaIS8_ENSt8__detail10_Select1stESt8equal_toIS5_ESt4hashIS5_ENSA_18_Mod_range_hashingENSA_20_Default_ranged_hashENSA_20_Prime_rehash_policyENSA_17_Hashtable_traitsILb1ELb0ELb1EEEE19_M_allocate_bucketsEm, symObjAddr: 0xAD74, symBinAddr: 0x10000EBE8, symSize: 0x58 }
  - { offsetInCU: 0x1CEBA, offset: 0x1CEBA, size: 0x8, addend: 0x0, symName: __ZNSt8__detail12_Insert_baseINSt7__cxx1112basic_stringIcSt11char_traitsIcESaIcEEESt4pairIKS6_S6_ESaIS9_ENS_10_Select1stESt8equal_toIS6_ESt4hashIS6_ENS_18_Mod_range_hashingENS_20_Default_ranged_hashENS_20_Prime_rehash_policyENS_17_Hashtable_traitsILb1ELb0ELb1EEEE20_M_conjure_hashtableEv, symObjAddr: 0xADCC, symBinAddr: 0x10000EC40, symSize: 0x14 }
  - { offsetInCU: 0x1D064, offset: 0x1D064, size: 0x8, addend: 0x0, symName: __ZNSt10_HashtableINSt7__cxx1112basic_stringIcSt11char_traitsIcESaIcEEESt4pairIKS5_S5_ESaIS8_ENSt8__detail10_Select1stESt8equal_toIS5_ESt4hashIS5_ENSA_18_Mod_range_hashingENSA_20_Default_ranged_hashENSA_20_Prime_rehash_policyENSA_17_Hashtable_traitsILb1ELb0ELb1EEEEC1ERKSF_RKSD_RKS9_, symObjAddr: 0xAC98, symBinAddr: 0x10000EB0C, symSize: 0xDC }
  - { offsetInCU: 0x1D06C, offset: 0x1D06C, size: 0x8, addend: 0x0, symName: __ZNSt10_HashtableINSt7__cxx1112basic_stringIcSt11char_traitsIcESaIcEEESt4pairIKS5_S5_ESaIS8_ENSt8__detail10_Select1stESt8equal_toIS5_ESt4hashIS5_ENSA_18_Mod_range_hashingENSA_20_Default_ranged_hashENSA_20_Prime_rehash_policyENSA_17_Hashtable_traitsILb1ELb0ELb1EEEE19_M_allocate_bucketsEm, symObjAddr: 0xAD74, symBinAddr: 0x10000EBE8, symSize: 0x58 }
  - { offsetInCU: 0x1D131, offset: 0x1D131, size: 0x8, addend: 0x0, symName: __ZSt32__make_move_if_noexcept_iteratorISt6vectorIP8creatureSaIS2_EESt13move_iteratorIPS4_EET0_PT_, symObjAddr: 0xAC74, symBinAddr: 0x10000EAE8, symSize: 0x24 }
  - { offsetInCU: 0x1D139, offset: 0x1D139, size: 0x8, addend: 0x0, symName: __ZNSt10_HashtableINSt7__cxx1112basic_stringIcSt11char_traitsIcESaIcEEESt4pairIKS5_S5_ESaIS8_ENSt8__detail10_Select1stESt8equal_toIS5_ESt4hashIS5_ENSA_18_Mod_range_hashingENSA_20_Default_ranged_hashENSA_20_Prime_rehash_policyENSA_17_Hashtable_traitsILb1ELb0ELb1EEEEC1ERKSF_RKSD_RKS9_, symObjAddr: 0xAC98, symBinAddr: 0x10000EB0C, symSize: 0xDC }
  - { offsetInCU: 0x1D11C, offset: 0x1D11C, size: 0x8, addend: 0x0, symName: __ZNKSt6vectorIS_IP8creatureSaIS1_EESaIS3_EE8max_sizeEv, symObjAddr: 0xAC54, symBinAddr: 0x10000EAC8, symSize: 0x20 }
  - { offsetInCU: 0x1D124, offset: 0x1D124, size: 0x8, addend: 0x0, symName: __ZSt32__make_move_if_noexcept_iteratorISt6vectorIP8creatureSaIS2_EESt13move_iteratorIPS4_EET0_PT_, symObjAddr: 0xAC74, symBinAddr: 0x10000EAE8, symSize: 0x24 }
  - { offsetInCU: 0x1D1F7, offset: 0x1D1F7, size: 0x8, addend: 0x0, symName: __ZSt20uninitialized_fill_nIPSt6vectorIP8creatureSaIS2_EEmS4_ET_S6_T0_RKT1_, symObjAddr: 0xAC24, symBinAddr: 0x10000EA98, symSize: 0x30 }
  - { offsetInCU: 0x1D1FF, offset: 0x1D1FF, size: 0x8, addend: 0x0, symName: __ZNKSt6vectorIS_IP8creatureSaIS1_EESaIS3_EE8max_sizeEv, symObjAddr: 0xAC54, symBinAddr: 0x10000EAC8, symSize: 0x20 }
  - { offsetInCU: 0x1D26C, offset: 0x1D26C, size: 0x8, addend: 0x0, symName: __ZSt8__fill_aIPSt6vectorIP8creatureSaIS2_EES4_EvT_S6_RKT0_, symObjAddr: 0xABF4, symBinAddr: 0x10000EA68, symSize: 0x30 }
  - { offsetInCU: 0x1D274, offset: 0x1D274, size: 0x8, addend: 0x0, symName: __ZSt20uninitialized_fill_nIPSt6vectorIP8creatureSaIS2_EEmS4_ET_S6_T0_RKT1_, symObjAddr: 0xAC24, symBinAddr: 0x10000EA98, symSize: 0x30 }
  - { offsetInCU: 0x1D314, offset: 0x1D314, size: 0x8, addend: 0x0, symName: __ZSt22__copy_move_backward_aILb1EPSt6vectorIP8creatureSaIS2_EES5_ET1_T0_S7_S6_, symObjAddr: 0xAB94, symBinAddr: 0x10000EA08, symSize: 0x60 }
  - { offsetInCU: 0x1D31C, offset: 0x1D31C, size: 0x8, addend: 0x0, symName: __ZSt8__fill_aIPSt6vectorIP8creatureSaIS2_EES4_EvT_S6_RKT0_, symObjAddr: 0xABF4, symBinAddr: 0x10000EA68, symSize: 0x30 }
  - { offsetInCU: 0x1D366, offset: 0x1D366, size: 0x8, addend: 0x0, symName: __ZSt12__miter_baseIPSt6vectorIP8creatureSaIS2_EEET_S6_, symObjAddr: 0xAB80, symBinAddr: 0x10000E9F4, symSize: 0x14 }
  - { offsetInCU: 0x1D36E, offset: 0x1D36E, size: 0x8, addend: 0x0, symName: __ZSt22__copy_move_backward_aILb1EPSt6vectorIP8creatureSaIS2_EES5_ET1_T0_S7_S6_, symObjAddr: 0xAB94, symBinAddr: 0x10000EA08, symSize: 0x60 }
  - { offsetInCU: 0x1D435, offset: 0x1D435, size: 0x8, addend: 0x0, symName: __ZSt22__uninitialized_copy_aISt13move_iteratorIPSt6vectorIP8creatureSaIS3_EEES6_S5_ET0_T_S9_S8_RSaIT1_E, symObjAddr: 0xAB50, symBinAddr: 0x10000E9C4, symSize: 0x30 }
  - { offsetInCU: 0x1D43D, offset: 0x1D43D, size: 0x8, addend: 0x0, symName: __ZSt12__miter_baseIPSt6vectorIP8creatureSaIS2_EEET_S6_, symObjAddr: 0xAB80, symBinAddr: 0x10000E9F4, symSize: 0x14 }
  - { offsetInCU: 0x1D472, offset: 0x1D472, size: 0x8, addend: 0x0, symName: __ZSt18make_move_iteratorIPSt6vectorIP8creatureSaIS2_EEESt13move_iteratorIT_ES7_, symObjAddr: 0xAB24, symBinAddr: 0x10000E998, symSize: 0x2C }
  - { offsetInCU: 0x1D47A, offset: 0x1D47A, size: 0x8, addend: 0x0, symName: __ZSt22__uninitialized_copy_aISt13move_iteratorIPSt6vectorIP8creatureSaIS3_EEES6_S5_ET0_T_S9_S8_RSaIT1_E, symObjAddr: 0xAB50, symBinAddr: 0x10000E9C4, symSize: 0x30 }
  - { offsetInCU: 0x1D554, offset: 0x1D554, size: 0x8, addend: 0x0, symName: __ZSt7forwardIRKSt6vectorIP8creatureSaIS2_EEEOT_RNSt16remove_referenceIS7_E4typeE, symObjAddr: 0xAB10, symBinAddr: 0x10000E984, symSize: 0x14 }
  - { offsetInCU: 0x1D55C, offset: 0x1D55C, size: 0x8, addend: 0x0, symName: __ZSt18make_move_iteratorIPSt6vectorIP8creatureSaIS2_EEESt13move_iteratorIT_ES7_, symObjAddr: 0xAB24, symBinAddr: 0x10000E998, symSize: 0x2C }
  - { offsetInCU: 0x1D52E, offset: 0x1D52E, size: 0x8, addend: 0x0, symName: __ZNSt6vectorIS_IP8creatureSaIS1_EESaIS3_EE16_Temporary_value6_M_ptrEv, symObjAddr: 0xAAF0, symBinAddr: 0x10000E964, symSize: 0x20 }
  - { offsetInCU: 0x1D536, offset: 0x1D536, size: 0x8, addend: 0x0, symName: __ZSt7forwardIRKSt6vectorIP8creatureSaIS2_EEEOT_RNSt16remove_referenceIS7_E4typeE, symObjAddr: 0xAB10, symBinAddr: 0x10000E984, symSize: 0x14 }
  - { offsetInCU: 0x1D5D3, offset: 0x1D5D3, size: 0x8, addend: 0x0, symName: __ZNSt6vectorIS_IP8creatureSaIS1_EESaIS3_EE16_Temporary_value8_StorageD1Ev, symObjAddr: 0xAADC, symBinAddr: 0x10000E950, symSize: 0x14 }
  - { offsetInCU: 0x1D5DB, offset: 0x1D5DB, size: 0x8, addend: 0x0, symName: __ZNSt6vectorIS_IP8creatureSaIS1_EESaIS3_EE16_Temporary_value6_M_ptrEv, symObjAddr: 0xAAF0, symBinAddr: 0x10000E964, symSize: 0x20 }
  - { offsetInCU: 0x1D61E, offset: 0x1D61E, size: 0x8, addend: 0x0, symName: __ZNSt6vectorIS_IP8creatureSaIS1_EESaIS3_EE16_Temporary_value8_StorageC1Ev, symObjAddr: 0xAAC0, symBinAddr: 0x10000E934, symSize: 0x1C }
  - { offsetInCU: 0x1D626, offset: 0x1D626, size: 0x8, addend: 0x0, symName: __ZNSt6vectorIS_IP8creatureSaIS1_EESaIS3_EE16_Temporary_value8_StorageD1Ev, symObjAddr: 0xAADC, symBinAddr: 0x10000E950, symSize: 0x14 }
  - { offsetInCU: 0x1D681, offset: 0x1D681, size: 0x8, addend: 0x0, symName: __ZSt20uninitialized_fill_nIPP8creaturemS1_ET_S3_T0_RKT1_, symObjAddr: 0xAA8C, symBinAddr: 0x10000E900, symSize: 0x34 }
  - { offsetInCU: 0x1D689, offset: 0x1D689, size: 0x8, addend: 0x0, symName: __ZNSt6vectorIS_IP8creatureSaIS1_EESaIS3_EE16_Temporary_value8_StorageC1Ev, symObjAddr: 0xAAC0, symBinAddr: 0x10000E934, symSize: 0x1C }
  - { offsetInCU: 0x1D6ED, offset: 0x1D6ED, size: 0x8, addend: 0x0, symName: __ZNSt12_Destroy_auxILb1EE9__destroyIPP8creatureEEvT_S5_, symObjAddr: 0xAA74, symBinAddr: 0x10000E8E8, symSize: 0x18 }
  - { offsetInCU: 0x1D6F5, offset: 0x1D6F5, size: 0x8, addend: 0x0, symName: __ZSt20uninitialized_fill_nIPP8creaturemS1_ET_S3_T0_RKT1_, symObjAddr: 0xAA8C, symBinAddr: 0x10000E900, symSize: 0x34 }
  - { offsetInCU: 0x1D733, offset: 0x1D733, size: 0x8, addend: 0x0, symName: __ZNSt15__new_allocatorIP8creatureE10deallocateEPS1_m, symObjAddr: 0xAA44, symBinAddr: 0x10000E8B8, symSize: 0x30 }
  - { offsetInCU: 0x1D73B, offset: 0x1D73B, size: 0x8, addend: 0x0, symName: __ZNSt12_Destroy_auxILb1EE9__destroyIPP8creatureEEvT_S5_, symObjAddr: 0xAA74, symBinAddr: 0x10000E8E8, symSize: 0x18 }
  - { offsetInCU: 0x1D78C, offset: 0x1D78C, size: 0x8, addend: 0x0, symName: __ZNSt12_Destroy_auxILb0EE9__destroyIPSt6vectorIP8creatureSaIS4_EEEEvT_S8_, symObjAddr: 0xA9F8, symBinAddr: 0x10000E86C, symSize: 0x4C }
  - { offsetInCU: 0x1D794, offset: 0x1D794, size: 0x8, addend: 0x0, symName: __ZNSt15__new_allocatorIP8creatureE10deallocateEPS1_m, symObjAddr: 0xAA44, symBinAddr: 0x10000E8B8, symSize: 0x30 }
  - { offsetInCU: 0x1D7E0, offset: 0x1D7E0, size: 0x8, addend: 0x0, symName: __ZNSt15__new_allocatorISt6vectorIP8creatureSaIS2_EEE10deallocateEPS4_m, symObjAddr: 0xA9BC, symBinAddr: 0x10000E830, symSize: 0x3C }
  - { offsetInCU: 0x1D7E8, offset: 0x1D7E8, size: 0x8, addend: 0x0, symName: __ZNSt12_Destroy_auxILb0EE9__destroyIPSt6vectorIP8creatureSaIS4_EEEEvT_S8_, symObjAddr: 0xA9F8, symBinAddr: 0x10000E86C, symSize: 0x4C }
  - { offsetInCU: 0x1D951, offset: 0x1D951, size: 0x8, addend: 0x0, symName: __ZNSt6chrono13duration_castINS_8durationIxSt5ratioILl1ELl1000EEEExS2_ILl1ELl1EEEENSt9enable_ifIXsrNS_13__is_durationIT_EE5valueES8_E4typeERKNS1_IT0_T1_EE, symObjAddr: 0xA9A0, symBinAddr: 0x10000E814, symSize: 0x1C }
  - { offsetInCU: 0x1D959, offset: 0x1D959, size: 0x8, addend: 0x0, symName: __ZNSt15__new_allocatorISt6vectorIP8creatureSaIS2_EEE10deallocateEPS4_m, symObjAddr: 0xA9BC, symBinAddr: 0x10000E830, symSize: 0x3C }
  - { offsetInCU: 0x1D93D, offset: 0x1D93D, size: 0x8, addend: 0x0, symName: __ZNSt4pairImmEC1ImmLb1EEEOT_OT0_, symObjAddr: 0xA958, symBinAddr: 0x10000E7CC, symSize: 0x48 }
  - { offsetInCU: 0x1D945, offset: 0x1D945, size: 0x8, addend: 0x0, symName: __ZNSt6chrono13duration_castINS_8durationIxSt5ratioILl1ELl1000EEEExS2_ILl1ELl1EEEENSt9enable_ifIXsrNS_13__is_durationIT_EE5valueES8_E4typeERKNS1_IT0_T1_EE, symObjAddr: 0xA9A0, symBinAddr: 0x10000E814, symSize: 0x1C }
  - { offsetInCU: 0x1D9FF, offset: 0x1D9FF, size: 0x8, addend: 0x0, symName: __ZSt12__relocate_aIPP8creatureS2_SaIS1_EET0_T_S5_S4_RT1_, symObjAddr: 0xA8FC, symBinAddr: 0x10000E770, symSize: 0x5C }
  - { offsetInCU: 0x1DA07, offset: 0x1DA07, size: 0x8, addend: 0x0, symName: __ZNSt4pairImmEC1ImmLb1EEEOT_OT0_, symObjAddr: 0xA958, symBinAddr: 0x10000E7CC, symSize: 0x48 }
  - { offsetInCU: 0x1DA57, offset: 0x1DA57, size: 0x8, addend: 0x0, symName: __ZNKSt6vectorIP8creatureSaIS1_EE8max_sizeEv, symObjAddr: 0xA8DC, symBinAddr: 0x10000E750, symSize: 0x20 }
  - { offsetInCU: 0x1DA5F, offset: 0x1DA5F, size: 0x8, addend: 0x0, symName: __ZSt12__relocate_aIPP8creatureS2_SaIS1_EET0_T_S5_S4_RT1_, symObjAddr: 0xA8FC, symBinAddr: 0x10000E770, symSize: 0x5C }
  - { offsetInCU: 0x1DA8D, offset: 0x1DA8D, size: 0x8, addend: 0x0, symName: __ZN9__gnu_cxx16__aligned_bufferISt4pairIKNSt7__cxx1112basic_stringIcSt11char_traitsIcESaIcEEES7_EE7_M_addrEv, symObjAddr: 0xA8C8, symBinAddr: 0x10000E73C, symSize: 0x14 }
  - { offsetInCU: 0x1DA95, offset: 0x1DA95, size: 0x8, addend: 0x0, symName: __ZNKSt6vectorIP8creatureSaIS1_EE8max_sizeEv, symObjAddr: 0xA8DC, symBinAddr: 0x10000E750, symSize: 0x20 }
  - { offsetInCU: 0x1DAC1, offset: 0x1DAC1, size: 0x8, addend: 0x0, symName: __ZNSt8__detail14_Node_iteratorISt4pairIKNSt7__cxx1112basic_stringIcSt11char_traitsIcESaIcEEES7_ELb0ELb1EEppEv, symObjAddr: 0xA8A8, symBinAddr: 0x10000E71C, symSize: 0x20 }
  - { offsetInCU: 0x1DAC9, offset: 0x1DAC9, size: 0x8, addend: 0x0, symName: __ZN9__gnu_cxx16__aligned_bufferISt4pairIKNSt7__cxx1112basic_stringIcSt11char_traitsIcESaIcEEES7_EE7_M_addrEv, symObjAddr: 0xA8C8, symBinAddr: 0x10000E73C, symSize: 0x14 }
  - { offsetInCU: 0x1DAF7, offset: 0x1DAF7, size: 0x8, addend: 0x0, symName: __ZNSt23mersenne_twister_engineIjLm32ELm624ELm397ELm31ELj2567483615ELm11ELj4294967295ELm7ELj2636928640ELm15ELj4022730752ELm18ELj1812433253EE11_M_gen_randEv, symObjAddr: 0xA6E8, symBinAddr: 0x10000E55C, symSize: 0x1C0 }
  - { offsetInCU: 0x1DAFF, offset: 0x1DAFF, size: 0x8, addend: 0x0, symName: __ZNSt8__detail14_Node_iteratorISt4pairIKNSt7__cxx1112basic_stringIcSt11char_traitsIcESaIcEEES7_ELb0ELb1EEppEv, symObjAddr: 0xA8A8, symBinAddr: 0x10000E71C, symSize: 0x20 }
  - { offsetInCU: 0x1DCBA, offset: 0x1DCBA, size: 0x8, addend: 0x0, symName: __ZNSt8__detail14_Node_iteratorISt4pairIKNSt7__cxx1112basic_stringIcSt11char_traitsIcESaIcEEES7_ELb0ELb1EEC1EPNS_10_Hash_nodeIS9_Lb1EEE, symObjAddr: 0xA6C0, symBinAddr: 0x10000E534, symSize: 0x28 }
  - { offsetInCU: 0x1DCC2, offset: 0x1DCC2, size: 0x8, addend: 0x0, symName: __ZNSt23mersenne_twister_engineIjLm32ELm624ELm397ELm31ELj2567483615ELm11ELj4294967295ELm7ELj2636928640ELm15ELj4022730752ELm18ELj1812433253EE11_M_gen_randEv, symObjAddr: 0xA6E8, symBinAddr: 0x10000E55C, symSize: 0x1C0 }
  - { offsetInCU: 0x1DC70, offset: 0x1DC70, size: 0x8, addend: 0x0, symName: __ZNSt8__detail4_ModIjLj624ELj1ELj0ELb1ELb1EE6__calcEj, symObjAddr: 0xA678, symBinAddr: 0x10000E4EC, symSize: 0x48 }
  - { offsetInCU: 0x1DC78, offset: 0x1DC78, size: 0x8, addend: 0x0, symName: __ZNSt8__detail14_Node_iteratorISt4pairIKNSt7__cxx1112basic_stringIcSt11char_traitsIcESaIcEEES7_ELb0ELb1EEC1EPNS_10_Hash_nodeIS9_Lb1EEE, symObjAddr: 0xA6C0, symBinAddr: 0x10000E534, symSize: 0x28 }
  - { offsetInCU: 0x1DCB6, offset: 0x1DCB6, size: 0x8, addend: 0x0, symName: __ZNSt8__detail4_ModIjLj0ELj1ELj0ELb1ELb0EE6__calcEj, symObjAddr: 0xA65C, symBinAddr: 0x10000E4D0, symSize: 0x1C }
  - { offsetInCU: 0x1DCBE, offset: 0x1DCBE, size: 0x8, addend: 0x0, symName: __ZNSt8__detail4_ModIjLj624ELj1ELj0ELb1ELb1EE6__calcEj, symObjAddr: 0xA678, symBinAddr: 0x10000E4EC, symSize: 0x48 }
  - { offsetInCU: 0x1DCFC, offset: 0x1DCFC, size: 0x8, addend: 0x0, symName: __ZNSt10_HashtableINSt7__cxx1112basic_stringIcSt11char_traitsIcESaIcEEESt4pairIKS5_S5_ESaIS8_ENSt8__detail10_Select1stESt8equal_toIS5_ESt4hashIS5_ENSA_18_Mod_range_hashingENSA_20_Default_ranged_hashENSA_20_Prime_rehash_policyENSA_17_Hashtable_traitsILb1ELb0ELb1EEEE21_M_deallocate_bucketsEPPNSA_15_Hash_node_baseEm, symObjAddr: 0xA60C, symBinAddr: 0x10000E480, symSize: 0x50 }
  - { offsetInCU: 0x1DD04, offset: 0x1DD04, size: 0x8, addend: 0x0, symName: __ZNSt8__detail4_ModIjLj0ELj1ELj0ELb1ELb0EE6__calcEj, symObjAddr: 0xA65C, symBinAddr: 0x10000E4D0, symSize: 0x1C }
  - { offsetInCU: 0x1DD57, offset: 0x1DD57, size: 0x8, addend: 0x0, symName: __ZNSt8__detail16_Hashtable_allocISaINS_10_Hash_nodeISt4pairIKNSt7__cxx1112basic_stringIcSt11char_traitsIcESaIcEEES8_ELb1EEEEE19_M_deallocate_nodesEPSB_, symObjAddr: 0xA5BC, symBinAddr: 0x10000E430, symSize: 0x50 }
  - { offsetInCU: 0x1DD5F, offset: 0x1DD5F, size: 0x8, addend: 0x0, symName: __ZNSt10_HashtableINSt7__cxx1112basic_stringIcSt11char_traitsIcESaIcEEESt4pairIKS5_S5_ESaIS8_ENSt8__detail10_Select1stESt8equal_toIS5_ESt4hashIS5_ENSA_18_Mod_range_hashingENSA_20_Default_ranged_hashENSA_20_Prime_rehash_policyENSA_17_Hashtable_traitsILb1ELb0ELb1EEEE21_M_deallocate_bucketsEPPNSA_15_Hash_node_baseEm, symObjAddr: 0xA60C, symBinAddr: 0x10000E480, symSize: 0x50 }
  - { offsetInCU: 0x1DDC5, offset: 0x1DDC5, size: 0x8, addend: 0x0, symName: __ZNKSt10_HashtableINSt7__cxx1112basic_stringIcSt11char_traitsIcESaIcEEESt4pairIKS5_S5_ESaIS8_ENSt8__detail10_Select1stESt8equal_toIS5_ESt4hashIS5_ENSA_18_Mod_range_hashingENSA_20_Default_ranged_hashENSA_20_Prime_rehash_policyENSA_17_Hashtable_traitsILb1ELb0ELb1EEEE8_M_beginEv, symObjAddr: 0xA5A4, symBinAddr: 0x10000E418, symSize: 0x18 }
  - { offsetInCU: 0x1DDCD, offset: 0x1DDCD, size: 0x8, addend: 0x0, symName: __ZNSt8__detail16_Hashtable_allocISaINS_10_Hash_nodeISt4pairIKNSt7__cxx1112basic_stringIcSt11char_traitsIcESaIcEEES8_ELb1EEEEE19_M_deallocate_nodesEPSB_, symObjAddr: 0xA5BC, symBinAddr: 0x10000E430, symSize: 0x50 }
  - { offsetInCU: 0x1DE9D, offset: 0x1DE9D, size: 0x8, addend: 0x0, symName: __ZNSt15__new_allocatorINSt8__detail10_Hash_nodeISt4pairIKNSt7__cxx1112basic_stringIcSt11char_traitsIcESaIcEEES8_ELb1EEEED2Ev, symObjAddr: 0xA590, symBinAddr: 0x10000E404, symSize: 0x14 }
  - { offsetInCU: 0x1DEA5, offset: 0x1DEA5, size: 0x8, addend: 0x0, symName: __ZNKSt10_HashtableINSt7__cxx1112basic_stringIcSt11char_traitsIcESaIcEEESt4pairIKS5_S5_ESaIS8_ENSt8__detail10_Select1stESt8equal_toIS5_ESt4hashIS5_ENSA_18_Mod_range_hashingENSA_20_Default_ranged_hashENSA_20_Prime_rehash_policyENSA_17_Hashtable_traitsILb1ELb0ELb1EEEE8_M_beginEv, symObjAddr: 0xA5A4, symBinAddr: 0x10000E418, symSize: 0x18 }
  - { offsetInCU: 0x1DE50, offset: 0x1DE50, size: 0x8, addend: 0x0, symName: __ZNSt8__detail12_Insert_baseINSt7__cxx1112basic_stringIcSt11char_traitsIcESaIcEEESt4pairIKS6_S6_ESaIS9_ENS_10_Select1stESt8equal_toIS6_ESt4hashIS6_ENS_18_Mod_range_hashingENS_20_Default_ranged_hashENS_20_Prime_rehash_policyENS_17_Hashtable_traitsILb1ELb0ELb1EEEE6insertIPKS9_EEvT_SP_, symObjAddr: 0xA534, symBinAddr: 0x10000E3A8, symSize: 0x5C }
  - { offsetInCU: 0x1DE58, offset: 0x1DE58, size: 0x8, addend: 0x0, symName: __ZNSt15__new_allocatorINSt8__detail10_Hash_nodeISt4pairIKNSt7__cxx1112basic_stringIcSt11char_traitsIcESaIcEEES8_ELb1EEEED2Ev, symObjAddr: 0xA590, symBinAddr: 0x10000E404, symSize: 0x14 }
  - { offsetInCU: 0x1E076, offset: 0x1E076, size: 0x8, addend: 0x0, symName: __ZNSt10_HashtableINSt7__cxx1112basic_stringIcSt11char_traitsIcESaIcEEESt4pairIKS5_S5_ESaIS8_ENSt8__detail10_Select1stESt8equal_toIS5_ESt4hashIS5_ENSA_18_Mod_range_hashingENSA_20_Default_ranged_hashENSA_20_Prime_rehash_policyENSA_17_Hashtable_traitsILb1ELb0ELb1EEEEC1EmRKSF_RKSD_RKS9_, symObjAddr: 0xA48C, symBinAddr: 0x10000E300, symSize: 0xA8 }
  - { offsetInCU: 0x1E07E, offset: 0x1E07E, size: 0x8, addend: 0x0, symName: __ZNSt8__detail12_Insert_baseINSt7__cxx1112basic_stringIcSt11char_traitsIcESaIcEEESt4pairIKS6_S6_ESaIS9_ENS_10_Select1stESt8equal_toIS6_ESt4hashIS6_ENS_18_Mod_range_hashingENS_20_Default_ranged_hashENS_20_Prime_rehash_policyENS_17_Hashtable_traitsILb1ELb0ELb1EEEE6insertIPKS9_EEvT_SP_, symObjAddr: 0xA534, symBinAddr: 0x10000E3A8, symSize: 0x5C }
  - { offsetInCU: 0x1DFFB, offset: 0x1DFFB, size: 0x8, addend: 0x0, symName: __ZNKSt16initializer_listISt4pairIKNSt7__cxx1112basic_stringIcSt11char_traitsIcESaIcEEES6_EE4sizeEv, symObjAddr: 0xA474, symBinAddr: 0x10000E2E8, symSize: 0x18 }
  - { offsetInCU: 0x1E003, offset: 0x1E003, size: 0x8, addend: 0x0, symName: __ZNSt10_HashtableINSt7__cxx1112basic_stringIcSt11char_traitsIcESaIcEEESt4pairIKS5_S5_ESaIS8_ENSt8__detail10_Select1stESt8equal_toIS5_ESt4hashIS5_ENSA_18_Mod_range_hashingENSA_20_Default_ranged_hashENSA_20_Prime_rehash_policyENSA_17_Hashtable_traitsILb1ELb0ELb1EEEEC1EmRKSF_RKSD_RKS9_, symObjAddr: 0xA48C, symBinAddr: 0x10000E300, symSize: 0xA8 }
  - { offsetInCU: 0x1E175, offset: 0x1E175, size: 0x8, addend: 0x0, symName: __ZN9__gnu_cxx17__normal_iteratorIPSt6vectorIP8creatureSaIS3_EES1_IS5_SaIS5_EEEC1ERKS6_, symObjAddr: 0xA44C, symBinAddr: 0x10000E2C0, symSize: 0x28 }
  - { offsetInCU: 0x1E17D, offset: 0x1E17D, size: 0x8, addend: 0x0, symName: __ZNKSt16initializer_listISt4pairIKNSt7__cxx1112basic_stringIcSt11char_traitsIcESaIcEEES6_EE4sizeEv, symObjAddr: 0xA474, symBinAddr: 0x10000E2E8, symSize: 0x18 }
  - { offsetInCU: 0x1E240, offset: 0x1E240, size: 0x8, addend: 0x0, symName: __ZSt34__uninitialized_move_if_noexcept_aIPSt6vectorIP8creatureSaIS2_EES5_SaIS4_EET0_T_S8_S7_RT1_, symObjAddr: 0xA3FC, symBinAddr: 0x10000E270, symSize: 0x50 }
  - { offsetInCU: 0x1E248, offset: 0x1E248, size: 0x8, addend: 0x0, symName: __ZN9__gnu_cxx17__normal_iteratorIPSt6vectorIP8creatureSaIS3_EES1_IS5_SaIS5_EEEC1ERKS6_, symObjAddr: 0xA44C, symBinAddr: 0x10000E2C0, symSize: 0x28 }
  - { offsetInCU: 0x1E202, offset: 0x1E202, size: 0x8, addend: 0x0, symName: __ZNSt12_Vector_baseISt6vectorIP8creatureSaIS2_EESaIS4_EE11_M_allocateEm, symObjAddr: 0xA3AC, symBinAddr: 0x10000E220, symSize: 0x50 }
  - { offsetInCU: 0x1E20A, offset: 0x1E20A, size: 0x8, addend: 0x0, symName: __ZSt34__uninitialized_move_if_noexcept_aIPSt6vectorIP8creatureSaIS2_EES5_SaIS4_EET0_T_S8_S7_RT1_, symObjAddr: 0xA3FC, symBinAddr: 0x10000E270, symSize: 0x50 }
  - { offsetInCU: 0x1E27C, offset: 0x1E27C, size: 0x8, addend: 0x0, symName: __ZNKSt6vectorIS_IP8creatureSaIS1_EESaIS3_EE12_M_check_lenEmPKc, symObjAddr: 0xA2DC, symBinAddr: 0x10000E150, symSize: 0xD0 }
  - { offsetInCU: 0x1E284, offset: 0x1E284, size: 0x8, addend: 0x0, symName: __ZNSt12_Vector_baseISt6vectorIP8creatureSaIS2_EESaIS4_EE11_M_allocateEm, symObjAddr: 0xA3AC, symBinAddr: 0x10000E220, symSize: 0x50 }
  - { offsetInCU: 0x1E3C1, offset: 0x1E3C1, size: 0x8, addend: 0x0, symName: __ZSt24__uninitialized_fill_n_aIPSt6vectorIP8creatureSaIS2_EEmS4_S4_ET_S6_T0_RKT1_RSaIT2_E, symObjAddr: 0xA2AC, symBinAddr: 0x10000E120, symSize: 0x30 }
  - { offsetInCU: 0x1E3C9, offset: 0x1E3C9, size: 0x8, addend: 0x0, symName: __ZNKSt6vectorIS_IP8creatureSaIS1_EESaIS3_EE12_M_check_lenEmPKc, symObjAddr: 0xA2DC, symBinAddr: 0x10000E150, symSize: 0xD0 }
  - { offsetInCU: 0x1E408, offset: 0x1E408, size: 0x8, addend: 0x0, symName: __ZSt4fillIPSt6vectorIP8creatureSaIS2_EES4_EvT_S6_RKT0_, symObjAddr: 0xA27C, symBinAddr: 0x10000E0F0, symSize: 0x30 }
  - { offsetInCU: 0x1E410, offset: 0x1E410, size: 0x8, addend: 0x0, symName: __ZSt24__uninitialized_fill_n_aIPSt6vectorIP8creatureSaIS2_EEmS4_S4_ET_S6_T0_RKT1_RSaIT2_E, symObjAddr: 0xA2AC, symBinAddr: 0x10000E120, symSize: 0x30 }
  - { offsetInCU: 0x1E49B, offset: 0x1E49B, size: 0x8, addend: 0x0, symName: __ZSt13move_backwardIPSt6vectorIP8creatureSaIS2_EES5_ET0_T_S7_S6_, symObjAddr: 0xA234, symBinAddr: 0x10000E0A8, symSize: 0x48 }
  - { offsetInCU: 0x1E4A3, offset: 0x1E4A3, size: 0x8, addend: 0x0, symName: __ZSt4fillIPSt6vectorIP8creatureSaIS2_EES4_EvT_S6_RKT0_, symObjAddr: 0xA27C, symBinAddr: 0x10000E0F0, symSize: 0x30 }
  - { offsetInCU: 0x1E49A, offset: 0x1E49A, size: 0x8, addend: 0x0, symName: __ZNK9__gnu_cxx17__normal_iteratorIPSt6vectorIP8creatureSaIS3_EES1_IS5_SaIS5_EEE4baseEv, symObjAddr: 0xA220, symBinAddr: 0x10000E094, symSize: 0x14 }
  - { offsetInCU: 0x1E4A2, offset: 0x1E4A2, size: 0x8, addend: 0x0, symName: __ZSt13move_backwardIPSt6vectorIP8creatureSaIS2_EES5_ET0_T_S7_S6_, symObjAddr: 0xA234, symBinAddr: 0x10000E0A8, symSize: 0x48 }
  - { offsetInCU: 0x1E598, offset: 0x1E598, size: 0x8, addend: 0x0, symName: __ZSt22__uninitialized_move_aIPSt6vectorIP8creatureSaIS2_EES5_SaIS4_EET0_T_S8_S7_RT1_, symObjAddr: 0xA1D0, symBinAddr: 0x10000E044, symSize: 0x50 }
  - { offsetInCU: 0x1E5A0, offset: 0x1E5A0, size: 0x8, addend: 0x0, symName: __ZNK9__gnu_cxx17__normal_iteratorIPSt6vectorIP8creatureSaIS3_EES1_IS5_SaIS5_EEE4baseEv, symObjAddr: 0xA220, symBinAddr: 0x10000E094, symSize: 0x14 }
  - { offsetInCU: 0x1E637, offset: 0x1E637, size: 0x8, addend: 0x0, symName: __ZN9__gnu_cxxmiIPSt6vectorIP8creatureSaIS3_EES1_IS5_SaIS5_EEEENS_17__normal_iteratorIT_T0_E15difference_typeERKSC_SF_, symObjAddr: 0xA184, symBinAddr: 0x10000DFF8, symSize: 0x4C }
  - { offsetInCU: 0x1E63F, offset: 0x1E63F, size: 0x8, addend: 0x0, symName: __ZSt22__uninitialized_move_aIPSt6vectorIP8creatureSaIS2_EES5_SaIS4_EET0_T_S8_S7_RT1_, symObjAddr: 0xA1D0, symBinAddr: 0x10000E044, symSize: 0x50 }
  - { offsetInCU: 0x1E5EC, offset: 0x1E5EC, size: 0x8, addend: 0x0, symName: __ZNSt6vectorIS_IP8creatureSaIS1_EESaIS3_EE16_Temporary_value6_M_valEv, symObjAddr: 0xA16C, symBinAddr: 0x10000DFE0, symSize: 0x18 }
  - { offsetInCU: 0x1E5F4, offset: 0x1E5F4, size: 0x8, addend: 0x0, symName: __ZN9__gnu_cxxmiIPSt6vectorIP8creatureSaIS3_EES1_IS5_SaIS5_EEEENS_17__normal_iteratorIT_T0_E15difference_typeERKSC_SF_, symObjAddr: 0xA184, symBinAddr: 0x10000DFF8, symSize: 0x4C }
  - { offsetInCU: 0x1E688, offset: 0x1E688, size: 0x8, addend: 0x0, symName: __ZNSt6vectorIS_IP8creatureSaIS1_EESaIS3_EE16_Temporary_valueD1Ev, symObjAddr: 0xA104, symBinAddr: 0x10000DF78, symSize: 0x68 }
  - { offsetInCU: 0x1E690, offset: 0x1E690, size: 0x8, addend: 0x0, symName: __ZNSt6vectorIS_IP8creatureSaIS1_EESaIS3_EE16_Temporary_value6_M_valEv, symObjAddr: 0xA16C, symBinAddr: 0x10000DFE0, symSize: 0x18 }
  - { offsetInCU: 0x1E77D, offset: 0x1E77D, size: 0x8, addend: 0x0, symName: __ZNSt6vectorIS_IP8creatureSaIS1_EESaIS3_EE16_Temporary_valueC1IJRKS3_EEEPS5_DpOT_, symObjAddr: 0xA008, symBinAddr: 0x10000DE7C, symSize: 0xFC }
  - { offsetInCU: 0x1E785, offset: 0x1E785, size: 0x8, addend: 0x0, symName: __ZNSt6vectorIS_IP8creatureSaIS1_EESaIS3_EE16_Temporary_valueD1Ev, symObjAddr: 0xA104, symBinAddr: 0x10000DF78, symSize: 0x68 }
  - { offsetInCU: 0x1E8A9, offset: 0x1E8A9, size: 0x8, addend: 0x0, symName: __ZSt24__uninitialized_fill_n_aIPP8creaturemS1_S1_ET_S3_T0_RKT1_RSaIT2_E, symObjAddr: 0x9FD8, symBinAddr: 0x10000DE4C, symSize: 0x30 }
  - { offsetInCU: 0x1E8B1, offset: 0x1E8B1, size: 0x8, addend: 0x0, symName: __ZNSt6vectorIS_IP8creatureSaIS1_EESaIS3_EE16_Temporary_valueC1IJRKS3_EEEPS5_DpOT_, symObjAddr: 0xA008, symBinAddr: 0x10000DE7C, symSize: 0xFC }
  - { offsetInCU: 0x1E8BA, offset: 0x1E8BA, size: 0x8, addend: 0x0, symName: __ZNSt12_Vector_baseIP8creatureSaIS1_EE17_M_create_storageEm, symObjAddr: 0x9F78, symBinAddr: 0x10000DDEC, symSize: 0x60 }
  - { offsetInCU: 0x1E8C2, offset: 0x1E8C2, size: 0x8, addend: 0x0, symName: __ZSt24__uninitialized_fill_n_aIPP8creaturemS1_S1_ET_S3_T0_RKT1_RSaIT2_E, symObjAddr: 0x9FD8, symBinAddr: 0x10000DE4C, symSize: 0x30 }
  - { offsetInCU: 0x1E969, offset: 0x1E969, size: 0x8, addend: 0x0, symName: __ZNSt12_Vector_baseIP8creatureSaIS1_EE12_Vector_implC1ERKS2_, symObjAddr: 0x9F2C, symBinAddr: 0x10000DDA0, symSize: 0x4C }
  - { offsetInCU: 0x1E971, offset: 0x1E971, size: 0x8, addend: 0x0, symName: __ZNSt12_Vector_baseIP8creatureSaIS1_EE17_M_create_storageEm, symObjAddr: 0x9F78, symBinAddr: 0x10000DDEC, symSize: 0x60 }
  - { offsetInCU: 0x1E9FD, offset: 0x1E9FD, size: 0x8, addend: 0x0, symName: __ZNSt6vectorIP8creatureSaIS1_EE11_S_max_sizeERKS2_, symObjAddr: 0x9ED8, symBinAddr: 0x10000DD4C, symSize: 0x54 }
  - { offsetInCU: 0x1EA05, offset: 0x1EA05, size: 0x8, addend: 0x0, symName: __ZNSt12_Vector_baseIP8creatureSaIS1_EE12_Vector_implC1ERKS2_, symObjAddr: 0x9F2C, symBinAddr: 0x10000DDA0, symSize: 0x4C }
  - { offsetInCU: 0x1EB06, offset: 0x1EB06, size: 0x8, addend: 0x0, symName: __ZSt8_DestroyIPP8creatureEvT_S3_, symObjAddr: 0x9EB0, symBinAddr: 0x10000DD24, symSize: 0x28 }
  - { offsetInCU: 0x1EB0E, offset: 0x1EB0E, size: 0x8, addend: 0x0, symName: __ZNSt6vectorIP8creatureSaIS1_EE11_S_max_sizeERKS2_, symObjAddr: 0x9ED8, symBinAddr: 0x10000DD4C, symSize: 0x54 }
  - { offsetInCU: 0x1EBBF, offset: 0x1EBBF, size: 0x8, addend: 0x0, symName: __ZSt8_DestroyIPSt6vectorIP8creatureSaIS2_EEEvT_S6_, symObjAddr: 0x9E88, symBinAddr: 0x10000DCFC, symSize: 0x28 }
  - { offsetInCU: 0x1EBC7, offset: 0x1EBC7, size: 0x8, addend: 0x0, symName: __ZSt8_DestroyIPP8creatureEvT_S3_, symObjAddr: 0x9EB0, symBinAddr: 0x10000DD24, symSize: 0x28 }
  - { offsetInCU: 0x1EC1F, offset: 0x1EC1F, size: 0x8, addend: 0x0, symName: __ZNSt6chrono20__duration_cast_implINS_8durationIxSt5ratioILl1ELl1000000000EEEES2_ILl1000000ELl1EExLb0ELb1EE6__castIxS2_ILl1ELl1000EEEES4_RKNS1_IT_T0_EE, symObjAddr: 0x9E48, symBinAddr: 0x10000DCBC, symSize: 0x40 }
  - { offsetInCU: 0x1EC27, offset: 0x1EC27, size: 0x8, addend: 0x0, symName: __ZSt8_DestroyIPSt6vectorIP8creatureSaIS2_EEEvT_S6_, symObjAddr: 0x9E88, symBinAddr: 0x10000DCFC, symSize: 0x28 }
  - { offsetInCU: 0x1ED13, offset: 0x1ED13, size: 0x8, addend: 0x0, symName: __ZNSt6chrono8durationIxSt5ratioILl1ELl1000EEEC1IxS1_ILl1ELl1EEvEERKNS0_IT_T0_EE, symObjAddr: 0x9E0C, symBinAddr: 0x10000DC80, symSize: 0x3C }
  - { offsetInCU: 0x1ED1B, offset: 0x1ED1B, size: 0x8, addend: 0x0, symName: __ZNSt6chrono20__duration_cast_implINS_8durationIxSt5ratioILl1ELl1000000000EEEES2_ILl1000000ELl1EExLb0ELb1EE6__castIxS2_ILl1ELl1000EEEES4_RKNS1_IT_T0_EE, symObjAddr: 0x9E48, symBinAddr: 0x10000DCBC, symSize: 0x40 }
  - { offsetInCU: 0x1ED1A, offset: 0x1ED1A, size: 0x8, addend: 0x0, symName: __ZNKSt6chrono8durationIxSt5ratioILl1ELl1000EEE5countEv, symObjAddr: 0x9DF4, symBinAddr: 0x10000DC68, symSize: 0x18 }
  - { offsetInCU: 0x1ED22, offset: 0x1ED22, size: 0x8, addend: 0x0, symName: __ZNSt6chrono8durationIxSt5ratioILl1ELl1000EEEC1IxS1_ILl1ELl1EEvEERKNS0_IT_T0_EE, symObjAddr: 0x9E0C, symBinAddr: 0x10000DC80, symSize: 0x3C }
  - { offsetInCU: 0x1ED4B, offset: 0x1ED4B, size: 0x8, addend: 0x0, symName: __ZNSt6chrono20__duration_cast_implINS_8durationIxSt5ratioILl1ELl1EEEES2_ILl1ELl1000EExLb1ELb0EE6__castIxS5_EES4_RKNS1_IT_T0_EE, symObjAddr: 0x9DA4, symBinAddr: 0x10000DC18, symSize: 0x50 }
  - { offsetInCU: 0x1ED53, offset: 0x1ED53, size: 0x8, addend: 0x0, symName: __ZNKSt6chrono8durationIxSt5ratioILl1ELl1000EEE5countEv, symObjAddr: 0x9DF4, symBinAddr: 0x10000DC68, symSize: 0x18 }
  - { offsetInCU: 0x1EE53, offset: 0x1EE53, size: 0x8, addend: 0x0, symName: __ZNSt6chronoltIxSt5ratioILl1ELl1000EExS2_EEbRKNS_8durationIT_T0_EERKNS3_IT1_T2_EE, symObjAddr: 0x9D4C, symBinAddr: 0x10000DBC0, symSize: 0x58 }
  - { offsetInCU: 0x1EE5B, offset: 0x1EE5B, size: 0x8, addend: 0x0, symName: __ZNSt6chrono20__duration_cast_implINS_8durationIxSt5ratioILl1ELl1EEEES2_ILl1ELl1000EExLb1ELb0EE6__castIxS5_EES4_RKNS1_IT_T0_EE, symObjAddr: 0x9DA4, symBinAddr: 0x10000DC18, symSize: 0x50 }
  - { offsetInCU: 0x1EEC0, offset: 0x1EEC0, size: 0x8, addend: 0x0, symName: __ZNSt6chrono8durationIxSt5ratioILl1ELl1000EEEC1IxvEERKT_, symObjAddr: 0x9D24, symBinAddr: 0x10000DB98, symSize: 0x28 }
  - { offsetInCU: 0x1EEC8, offset: 0x1EEC8, size: 0x8, addend: 0x0, symName: __ZNSt6chronoltIxSt5ratioILl1ELl1000EExS2_EEbRKNS_8durationIT_T0_EERKNS3_IT1_T2_EE, symObjAddr: 0x9D4C, symBinAddr: 0x10000DBC0, symSize: 0x58 }
  - { offsetInCU: 0x1EF14, offset: 0x1EF14, size: 0x8, addend: 0x0, symName: __ZNSt24uniform_int_distributionImE5_S_ndIySt23mersenne_twister_engineIjLm32ELm624ELm397ELm31ELj2567483615ELm11ELj4294967295ELm7ELj2636928640ELm15ELj4022730752ELm18ELj1812433253EEjEET1_RT0_S4_, symObjAddr: 0x9C80, symBinAddr: 0x10000DAF4, symSize: 0xA4 }
  - { offsetInCU: 0x1EF1C, offset: 0x1EF1C, size: 0x8, addend: 0x0, symName: __ZNSt6chrono8durationIxSt5ratioILl1ELl1000EEEC1IxvEERKT_, symObjAddr: 0x9D24, symBinAddr: 0x10000DB98, symSize: 0x28 }
  - { offsetInCU: 0x1EFD6, offset: 0x1EFD6, size: 0x8, addend: 0x0, symName: __ZNKSt24uniform_int_distributionImE10param_type1aEv, symObjAddr: 0x9C68, symBinAddr: 0x10000DADC, symSize: 0x18 }
  - { offsetInCU: 0x1EFDE, offset: 0x1EFDE, size: 0x8, addend: 0x0, symName: __ZNSt24uniform_int_distributionImE5_S_ndIySt23mersenne_twister_engineIjLm32ELm624ELm397ELm31ELj2567483615ELm11ELj4294967295ELm7ELj2636928640ELm15ELj4022730752ELm18ELj1812433253EEjEET1_RT0_S4_, symObjAddr: 0x9C80, symBinAddr: 0x10000DAF4, symSize: 0xA4 }
  - { offsetInCU: 0x1F007, offset: 0x1F007, size: 0x8, addend: 0x0, symName: __ZNKSt24uniform_int_distributionImE10param_type1bEv, symObjAddr: 0x9C50, symBinAddr: 0x10000DAC4, symSize: 0x18 }
  - { offsetInCU: 0x1F00F, offset: 0x1F00F, size: 0x8, addend: 0x0, symName: __ZNKSt24uniform_int_distributionImE10param_type1aEv, symObjAddr: 0x9C68, symBinAddr: 0x10000DADC, symSize: 0x18 }
  - { offsetInCU: 0x1F0E9, offset: 0x1F0E9, size: 0x8, addend: 0x0, symName: __ZSt9make_pairImmESt4pairINSt25__strip_reference_wrapperINSt5decayIT_E4typeEE6__typeENS1_INS2_IT0_E4typeEE6__typeEEOS3_OS8_, symObjAddr: 0x9C04, symBinAddr: 0x10000DA78, symSize: 0x4C }
  - { offsetInCU: 0x1F0F1, offset: 0x1F0F1, size: 0x8, addend: 0x0, symName: __ZNKSt24uniform_int_distributionImE10param_type1bEv, symObjAddr: 0x9C50, symBinAddr: 0x10000DAC4, symSize: 0x18 }
  - { offsetInCU: 0x1F0A8, offset: 0x1F0A8, size: 0x8, addend: 0x0, symName: __ZNK9__gnu_cxx17__normal_iteratorIPP8creatureSt6vectorIS2_SaIS2_EEEdeEv, symObjAddr: 0x9BEC, symBinAddr: 0x10000DA60, symSize: 0x18 }
  - { offsetInCU: 0x1F0B0, offset: 0x1F0B0, size: 0x8, addend: 0x0, symName: __ZSt9make_pairImmESt4pairINSt25__strip_reference_wrapperINSt5decayIT_E4typeEE6__typeENS1_INS2_IT0_E4typeEE6__typeEEOS3_OS8_, symObjAddr: 0x9C04, symBinAddr: 0x10000DA78, symSize: 0x4C }
  - { offsetInCU: 0x1F0D9, offset: 0x1F0D9, size: 0x8, addend: 0x0, symName: __ZNK9__gnu_cxx17__normal_iteratorIPP8creatureSt6vectorIS2_SaIS2_EEE4baseEv, symObjAddr: 0x9BD8, symBinAddr: 0x10000DA4C, symSize: 0x14 }
  - { offsetInCU: 0x1F0E1, offset: 0x1F0E1, size: 0x8, addend: 0x0, symName: __ZNK9__gnu_cxx17__normal_iteratorIPP8creatureSt6vectorIS2_SaIS2_EEEdeEv, symObjAddr: 0x9BEC, symBinAddr: 0x10000DA60, symSize: 0x18 }
  - { offsetInCU: 0x1F10A, offset: 0x1F10A, size: 0x8, addend: 0x0, symName: __ZNSt6vectorIP8creatureSaIS1_EE11_S_relocateEPS1_S4_S4_RS2_, symObjAddr: 0x9BA4, symBinAddr: 0x10000DA18, symSize: 0x34 }
  - { offsetInCU: 0x1F112, offset: 0x1F112, size: 0x8, addend: 0x0, symName: __ZNK9__gnu_cxx17__normal_iteratorIPP8creatureSt6vectorIS2_SaIS2_EEE4baseEv, symObjAddr: 0x9BD8, symBinAddr: 0x10000DA4C, symSize: 0x14 }
  - { offsetInCU: 0x1F17D, offset: 0x1F17D, size: 0x8, addend: 0x0, symName: __ZNSt12_Vector_baseIP8creatureSaIS1_EE11_M_allocateEm, symObjAddr: 0x9B54, symBinAddr: 0x10000D9C8, symSize: 0x50 }
  - { offsetInCU: 0x1F185, offset: 0x1F185, size: 0x8, addend: 0x0, symName: __ZNSt6vectorIP8creatureSaIS1_EE11_S_relocateEPS1_S4_S4_RS2_, symObjAddr: 0x9BA4, symBinAddr: 0x10000DA18, symSize: 0x34 }
  - { offsetInCU: 0x1F1F7, offset: 0x1F1F7, size: 0x8, addend: 0x0, symName: __ZNKSt6vectorIP8creatureSaIS1_EE12_M_check_lenEmPKc, symObjAddr: 0x9A84, symBinAddr: 0x10000D8F8, symSize: 0xD0 }
  - { offsetInCU: 0x1F1FF, offset: 0x1F1FF, size: 0x8, addend: 0x0, symName: __ZNSt12_Vector_baseIP8creatureSaIS1_EE11_M_allocateEm, symObjAddr: 0x9B54, symBinAddr: 0x10000D9C8, symSize: 0x50 }
  - { offsetInCU: 0x1F31B, offset: 0x1F31B, size: 0x8, addend: 0x0, symName: __ZSt7forwardIRKP8creatureEOT_RNSt16remove_referenceIS4_E4typeE, symObjAddr: 0x9A70, symBinAddr: 0x10000D8E4, symSize: 0x14 }
  - { offsetInCU: 0x1F323, offset: 0x1F323, size: 0x8, addend: 0x0, symName: __ZNKSt6vectorIP8creatureSaIS1_EE12_M_check_lenEmPKc, symObjAddr: 0x9A84, symBinAddr: 0x10000D8F8, symSize: 0xD0 }
  - { offsetInCU: 0x1F314, offset: 0x1F314, size: 0x8, addend: 0x0, symName: __ZNK9__gnu_cxx17__normal_iteratorIPKP8creatureSt6vectorIS2_SaIS2_EEE4baseEv, symObjAddr: 0x9A5C, symBinAddr: 0x10000D8D0, symSize: 0x14 }
  - { offsetInCU: 0x1F31C, offset: 0x1F31C, size: 0x8, addend: 0x0, symName: __ZSt7forwardIRKP8creatureEOT_RNSt16remove_referenceIS4_E4typeE, symObjAddr: 0x9A70, symBinAddr: 0x10000D8E4, symSize: 0x14 }
  - { offsetInCU: 0x1F3BE, offset: 0x1F3BE, size: 0x8, addend: 0x0, symName: __ZN9__gnu_cxx17__normal_iteratorIPKP8creatureSt6vectorIS2_SaIS2_EEEC1ERKS4_, symObjAddr: 0x9A34, symBinAddr: 0x10000D8A8, symSize: 0x28 }
  - { offsetInCU: 0x1F3C6, offset: 0x1F3C6, size: 0x8, addend: 0x0, symName: __ZNK9__gnu_cxx17__normal_iteratorIPKP8creatureSt6vectorIS2_SaIS2_EEE4baseEv, symObjAddr: 0x9A5C, symBinAddr: 0x10000D8D0, symSize: 0x14 }
  - { offsetInCU: 0x1F3AF, offset: 0x1F3AF, size: 0x8, addend: 0x0, symName: __ZNK9__gnu_cxx17__normal_iteratorIPKSt6vectorIP8creatureSaIS3_EES1_IS5_SaIS5_EEE4baseEv, symObjAddr: 0x9A20, symBinAddr: 0x10000D894, symSize: 0x14 }
  - { offsetInCU: 0x1F3B7, offset: 0x1F3B7, size: 0x8, addend: 0x0, symName: __ZN9__gnu_cxx17__normal_iteratorIPKP8creatureSt6vectorIS2_SaIS2_EEEC1ERKS4_, symObjAddr: 0x9A34, symBinAddr: 0x10000D8A8, symSize: 0x28 }
  - { offsetInCU: 0x1F465, offset: 0x1F465, size: 0x8, addend: 0x0, symName: __ZN9__gnu_cxx17__normal_iteratorIPKSt6vectorIP8creatureSaIS3_EES1_IS5_SaIS5_EEEC1ERKS7_, symObjAddr: 0x99F8, symBinAddr: 0x10000D86C, symSize: 0x28 }
  - { offsetInCU: 0x1F46D, offset: 0x1F46D, size: 0x8, addend: 0x0, symName: __ZNK9__gnu_cxx17__normal_iteratorIPKSt6vectorIP8creatureSaIS3_EES1_IS5_SaIS5_EEE4baseEv, symObjAddr: 0x9A20, symBinAddr: 0x10000D894, symSize: 0x14 }
  - { offsetInCU: 0x1F44A, offset: 0x1F44A, size: 0x8, addend: 0x0, symName: __ZN9__gnu_cxx16__aligned_bufferISt4pairIKNSt7__cxx1112basic_stringIcSt11char_traitsIcESaIcEEES7_EE6_M_ptrEv, symObjAddr: 0x99DC, symBinAddr: 0x10000D850, symSize: 0x1C }
  - { offsetInCU: 0x1F452, offset: 0x1F452, size: 0x8, addend: 0x0, symName: __ZN9__gnu_cxx17__normal_iteratorIPKSt6vectorIP8creatureSaIS3_EES1_IS5_SaIS5_EEEC1ERKS7_, symObjAddr: 0x99F8, symBinAddr: 0x10000D86C, symSize: 0x28 }
  - { offsetInCU: 0x1F5A8, offset: 0x1F5A8, size: 0x8, addend: 0x0, symName: __ZSt9__advanceINSt8__detail14_Node_iteratorISt4pairIKNSt7__cxx1112basic_stringIcSt11char_traitsIcESaIcEEES8_ELb0ELb1EEElEvRT_T0_St18input_iterator_tag, symObjAddr: 0x9954, symBinAddr: 0x10000D7C8, symSize: 0x88 }
  - { offsetInCU: 0x1F5B0, offset: 0x1F5B0, size: 0x8, addend: 0x0, symName: __ZN9__gnu_cxx16__aligned_bufferISt4pairIKNSt7__cxx1112basic_stringIcSt11char_traitsIcESaIcEEES7_EE6_M_ptrEv, symObjAddr: 0x99DC, symBinAddr: 0x10000D850, symSize: 0x1C }
  - { offsetInCU: 0x1F520, offset: 0x1F520, size: 0x8, addend: 0x0, symName: __ZNSt23mersenne_twister_engineIjLm32ELm624ELm397ELm31ELj2567483615ELm11ELj4294967295ELm7ELj2636928640ELm15ELj4022730752ELm18ELj1812433253EEclEv, symObjAddr: 0x98A0, symBinAddr: 0x10000D714, symSize: 0xB4 }
  - { offsetInCU: 0x1F528, offset: 0x1F528, size: 0x8, addend: 0x0, symName: __ZSt9__advanceINSt8__detail14_Node_iteratorISt4pairIKNSt7__cxx1112basic_stringIcSt11char_traitsIcESaIcEEES8_ELb0ELb1EEElEvRT_T0_St18input_iterator_tag, symObjAddr: 0x9954, symBinAddr: 0x10000D7C8, symSize: 0x88 }
  - { offsetInCU: 0x1F565, offset: 0x1F565, size: 0x8, addend: 0x0, symName: __ZNSt24uniform_int_distributionIiE5_S_ndIySt23mersenne_twister_engineIjLm32ELm624ELm397ELm31ELj2567483615ELm11ELj4294967295ELm7ELj2636928640ELm15ELj4022730752ELm18ELj1812433253EEjEET1_RT0_S4_, symObjAddr: 0x97FC, symBinAddr: 0x10000D670, symSize: 0xA4 }
  - { offsetInCU: 0x1F56D, offset: 0x1F56D, size: 0x8, addend: 0x0, symName: __ZNSt23mersenne_twister_engineIjLm32ELm624ELm397ELm31ELj2567483615ELm11ELj4294967295ELm7ELj2636928640ELm15ELj4022730752ELm18ELj1812433253EEclEv, symObjAddr: 0x98A0, symBinAddr: 0x10000D714, symSize: 0xB4 }
  - { offsetInCU: 0x1F627, offset: 0x1F627, size: 0x8, addend: 0x0, symName: __ZNKSt24uniform_int_distributionIiE10param_type1aEv, symObjAddr: 0x97E4, symBinAddr: 0x10000D658, symSize: 0x18 }
  - { offsetInCU: 0x1F62F, offset: 0x1F62F, size: 0x8, addend: 0x0, symName: __ZNSt24uniform_int_distributionIiE5_S_ndIySt23mersenne_twister_engineIjLm32ELm624ELm397ELm31ELj2567483615ELm11ELj4294967295ELm7ELj2636928640ELm15ELj4022730752ELm18ELj1812433253EEjEET1_RT0_S4_, symObjAddr: 0x97FC, symBinAddr: 0x10000D670, symSize: 0xA4 }
  - { offsetInCU: 0x1F658, offset: 0x1F658, size: 0x8, addend: 0x0, symName: __ZNKSt24uniform_int_distributionIiE10param_type1bEv, symObjAddr: 0x97CC, symBinAddr: 0x10000D640, symSize: 0x18 }
  - { offsetInCU: 0x1F660, offset: 0x1F660, size: 0x8, addend: 0x0, symName: __ZNKSt24uniform_int_distributionIiE10param_type1aEv, symObjAddr: 0x97E4, symBinAddr: 0x10000D658, symSize: 0x18 }
  - { offsetInCU: 0x1F689, offset: 0x1F689, size: 0x8, addend: 0x0, symName: __ZNSt10_HashtableINSt7__cxx1112basic_stringIcSt11char_traitsIcESaIcEEESt4pairIKS5_S5_ESaIS8_ENSt8__detail10_Select1stESt8equal_toIS5_ESt4hashIS5_ENSA_18_Mod_range_hashingENSA_20_Default_ranged_hashENSA_20_Prime_rehash_policyENSA_17_Hashtable_traitsILb1ELb0ELb1EEEE5beginEv, symObjAddr: 0x97A0, symBinAddr: 0x10000D614, symSize: 0x2C }
  - { offsetInCU: 0x1F691, offset: 0x1F691, size: 0x8, addend: 0x0, symName: __ZNKSt24uniform_int_distributionIiE10param_type1bEv, symObjAddr: 0x97CC, symBinAddr: 0x10000D640, symSize: 0x18 }
  - { offsetInCU: 0x1F703, offset: 0x1F703, size: 0x8, addend: 0x0, symName: __ZNSt8__detail5__modIjLj624ELj1ELj0EEET_S1_, symObjAddr: 0x977C, symBinAddr: 0x10000D5F0, symSize: 0x24 }
  - { offsetInCU: 0x1F70B, offset: 0x1F70B, size: 0x8, addend: 0x0, symName: __ZNSt10_HashtableINSt7__cxx1112basic_stringIcSt11char_traitsIcESaIcEEESt4pairIKS5_S5_ESaIS8_ENSt8__detail10_Select1stESt8equal_toIS5_ESt4hashIS5_ENSA_18_Mod_range_hashingENSA_20_Default_ranged_hashENSA_20_Prime_rehash_policyENSA_17_Hashtable_traitsILb1ELb0ELb1EEEE5beginEv, symObjAddr: 0x97A0, symBinAddr: 0x10000D614, symSize: 0x2C }
  - { offsetInCU: 0x1F79E, offset: 0x1F79E, size: 0x8, addend: 0x0, symName: __ZNSt8__detail5__modIjLj0ELj1ELj0EEET_S1_, symObjAddr: 0x9758, symBinAddr: 0x10000D5CC, symSize: 0x24 }
  - { offsetInCU: 0x1F7A6, offset: 0x1F7A6, size: 0x8, addend: 0x0, symName: __ZNSt8__detail5__modIjLj624ELj1ELj0EEET_S1_, symObjAddr: 0x977C, symBinAddr: 0x10000D5F0, symSize: 0x24 }
  - { offsetInCU: 0x1F7F7, offset: 0x1F7F7, size: 0x8, addend: 0x0, symName: __ZNSt10_HashtableINSt7__cxx1112basic_stringIcSt11char_traitsIcESaIcEEESt4pairIKS5_S5_ESaIS8_ENSt8__detail10_Select1stESt8equal_toIS5_ESt4hashIS5_ENSA_18_Mod_range_hashingENSA_20_Default_ranged_hashENSA_20_Prime_rehash_policyENSA_17_Hashtable_traitsILb1ELb0ELb1EEEE21_M_deallocate_bucketsEv, symObjAddr: 0x9724, symBinAddr: 0x10000D598, symSize: 0x34 }
  - { offsetInCU: 0x1F7FF, offset: 0x1F7FF, size: 0x8, addend: 0x0, symName: __ZNSt8__detail5__modIjLj0ELj1ELj0EEET_S1_, symObjAddr: 0x9758, symBinAddr: 0x10000D5CC, symSize: 0x24 }
  - { offsetInCU: 0x1F828, offset: 0x1F828, size: 0x8, addend: 0x0, symName: __ZNSt10_HashtableINSt7__cxx1112basic_stringIcSt11char_traitsIcESaIcEEESt4pairIKS5_S5_ESaIS8_ENSt8__detail10_Select1stESt8equal_toIS5_ESt4hashIS5_ENSA_18_Mod_range_hashingENSA_20_Default_ranged_hashENSA_20_Prime_rehash_policyENSA_17_Hashtable_traitsILb1ELb0ELb1EEEE5clearEv, symObjAddr: 0x96C0, symBinAddr: 0x10000D534, symSize: 0x64 }
  - { offsetInCU: 0x1F830, offset: 0x1F830, size: 0x8, addend: 0x0, symName: __ZNSt10_HashtableINSt7__cxx1112basic_stringIcSt11char_traitsIcESaIcEEESt4pairIKS5_S5_ESaIS8_ENSt8__detail10_Select1stESt8equal_toIS5_ESt4hashIS5_ENSA_18_Mod_range_hashingENSA_20_Default_ranged_hashENSA_20_Prime_rehash_policyENSA_17_Hashtable_traitsILb1ELb0ELb1EEEE21_M_deallocate_bucketsEv, symObjAddr: 0x9724, symBinAddr: 0x10000D598, symSize: 0x34 }
  - { offsetInCU: 0x1FA64, offset: 0x1FA64, size: 0x8, addend: 0x0, symName: __ZNSt10_HashtableINSt7__cxx1112basic_stringIcSt11char_traitsIcESaIcEEESt4pairIKS5_S5_ESaIS8_ENSt8__detail10_Select1stESt8equal_toIS5_ESt4hashIS5_ENSA_18_Mod_range_hashingENSA_20_Default_ranged_hashENSA_20_Prime_rehash_policyENSA_17_Hashtable_traitsILb1ELb0ELb1EEEEC1IPKS8_EET_SP_mRKSF_RKSD_RKS9_St17integral_constantIbLb1EE, symObjAddr: 0x9648, symBinAddr: 0x10000D4BC, symSize: 0x78 }
  - { offsetInCU: 0x1FA6C, offset: 0x1FA6C, size: 0x8, addend: 0x0, symName: __ZNSt10_HashtableINSt7__cxx1112basic_stringIcSt11char_traitsIcESaIcEEESt4pairIKS5_S5_ESaIS8_ENSt8__detail10_Select1stESt8equal_toIS5_ESt4hashIS5_ENSA_18_Mod_range_hashingENSA_20_Default_ranged_hashENSA_20_Prime_rehash_policyENSA_17_Hashtable_traitsILb1ELb0ELb1EEEE5clearEv, symObjAddr: 0x96C0, symBinAddr: 0x10000D534, symSize: 0x64 }
  - { offsetInCU: 0x1F9B8, offset: 0x1F9B8, size: 0x8, addend: 0x0, symName: __ZNKSt16initializer_listISt4pairIKNSt7__cxx1112basic_stringIcSt11char_traitsIcESaIcEEES6_EE3endEv, symObjAddr: 0x9610, symBinAddr: 0x10000D484, symSize: 0x38 }
  - { offsetInCU: 0x1F9C0, offset: 0x1F9C0, size: 0x8, addend: 0x0, symName: __ZNSt10_HashtableINSt7__cxx1112basic_stringIcSt11char_traitsIcESaIcEEESt4pairIKS5_S5_ESaIS8_ENSt8__detail10_Select1stESt8equal_toIS5_ESt4hashIS5_ENSA_18_Mod_range_hashingENSA_20_Default_ranged_hashENSA_20_Prime_rehash_policyENSA_17_Hashtable_traitsILb1ELb0ELb1EEEEC1IPKS8_EET_SP_mRKSF_RKSD_RKS9_St17integral_constantIbLb1EE, symObjAddr: 0x9648, symBinAddr: 0x10000D4BC, symSize: 0x78 }
  - { offsetInCU: 0x1F9E9, offset: 0x1F9E9, size: 0x8, addend: 0x0, symName: __ZNKSt16initializer_listISt4pairIKNSt7__cxx1112basic_stringIcSt11char_traitsIcESaIcEEES6_EE5beginEv, symObjAddr: 0x95F8, symBinAddr: 0x10000D46C, symSize: 0x18 }
  - { offsetInCU: 0x1F9F1, offset: 0x1F9F1, size: 0x8, addend: 0x0, symName: __ZNKSt16initializer_listISt4pairIKNSt7__cxx1112basic_stringIcSt11char_traitsIcESaIcEEES6_EE3endEv, symObjAddr: 0x9610, symBinAddr: 0x10000D484, symSize: 0x38 }
  - { offsetInCU: 0x1FA8A, offset: 0x1FA8A, size: 0x8, addend: 0x0, symName: __ZNSt6chrono8durationIxSt5ratioILl1ELl1EEEC1IxvEERKT_, symObjAddr: 0x95D0, symBinAddr: 0x10000D444, symSize: 0x28 }
  - { offsetInCU: 0x1FA92, offset: 0x1FA92, size: 0x8, addend: 0x0, symName: __ZNKSt16initializer_listISt4pairIKNSt7__cxx1112basic_stringIcSt11char_traitsIcESaIcEEES6_EE5beginEv, symObjAddr: 0x95F8, symBinAddr: 0x10000D46C, symSize: 0x18 }
  - { offsetInCU: 0x1FAE5, offset: 0x1FAE5, size: 0x8, addend: 0x0, symName: __ZNSt7__cxx1112basic_stringIcSt11char_traitsIcESaIcEE12_M_constructIPcEEvT_S7_St20forward_iterator_tag, symObjAddr: 0x94E8, symBinAddr: 0x10000D35C, symSize: 0xE8 }
  - { offsetInCU: 0x1FAED, offset: 0x1FAED, size: 0x8, addend: 0x0, symName: __ZNSt6chrono8durationIxSt5ratioILl1ELl1EEEC1IxvEERKT_, symObjAddr: 0x95D0, symBinAddr: 0x10000D444, symSize: 0x28 }
  - { offsetInCU: 0x1FCA6, offset: 0x1FCA6, size: 0x8, addend: 0x0, symName: __ZZNSt7__cxx1112basic_stringIcSt11char_traitsIcESaIcEE12_M_constructIPcEEvT_S7_St20forward_iterator_tagEN6_GuardC1EPS4_, symObjAddr: 0x9490, symBinAddr: 0x10000D304, symSize: 0x24 }
  - { offsetInCU: 0x1FCAE, offset: 0x1FCAE, size: 0x8, addend: 0x0, symName: __ZZNSt7__cxx1112basic_stringIcSt11char_traitsIcESaIcEE12_M_constructIPcEEvT_S7_St20forward_iterator_tagEN6_GuardD1Ev, symObjAddr: 0x94B4, symBinAddr: 0x10000D328, symSize: 0x34 }
  - { offsetInCU: 0x1FCE1, offset: 0x1FCE1, size: 0x8, addend: 0x0, symName: __ZZNSt7__cxx1112basic_stringIcSt11char_traitsIcESaIcEE12_M_constructIPcEEvT_S7_St20forward_iterator_tagEN6_GuardD1Ev, symObjAddr: 0x94B4, symBinAddr: 0x10000D328, symSize: 0x34 }
  - { offsetInCU: 0x1FCE9, offset: 0x1FCE9, size: 0x8, addend: 0x0, symName: __ZNSt7__cxx1112basic_stringIcSt11char_traitsIcESaIcEE12_M_constructIPcEEvT_S7_St20forward_iterator_tag, symObjAddr: 0x94E8, symBinAddr: 0x10000D35C, symSize: 0xE8 }
  - { offsetInCU: 0x1FD9E, offset: 0x1FD9E, size: 0x8, addend: 0x0, symName: __ZNSt6vectorIS_IP8creatureSaIS1_EESaIS3_EE15_M_erase_at_endEPS3_, symObjAddr: 0x93FC, symBinAddr: 0x10000D270, symSize: 0x94 }
  - { offsetInCU: 0x1FDA6, offset: 0x1FDA6, size: 0x8, addend: 0x0, symName: __ZZNSt7__cxx1112basic_stringIcSt11char_traitsIcESaIcEE12_M_constructIPcEEvT_S7_St20forward_iterator_tagEN6_GuardC1EPS4_, symObjAddr: 0x9490, symBinAddr: 0x10000D304, symSize: 0x24 }
  - { offsetInCU: 0x1FE4D, offset: 0x1FE4D, size: 0x8, addend: 0x0, symName: __ZNSt6vectorIS_IP8creatureSaIS1_EESaIS3_EE3endEv, symObjAddr: 0x93D4, symBinAddr: 0x10000D248, symSize: 0x28 }
  - { offsetInCU: 0x1FE55, offset: 0x1FE55, size: 0x8, addend: 0x0, symName: __ZNSt6vectorIS_IP8creatureSaIS1_EESaIS3_EE15_M_erase_at_endEPS3_, symObjAddr: 0x93FC, symBinAddr: 0x10000D270, symSize: 0x94 }
  - { offsetInCU: 0x1FE7E, offset: 0x1FE7E, size: 0x8, addend: 0x0, symName: __ZNSt6vectorIS_IP8creatureSaIS1_EESaIS3_EE14_M_fill_insertEN9__gnu_cxx17__normal_iteratorIPS3_S5_EEmRKS3_, symObjAddr: 0x8ED8, symBinAddr: 0x10000CD4C, symSize: 0x4FC }
  - { offsetInCU: 0x1FE86, offset: 0x1FE86, size: 0x8, addend: 0x0, symName: __ZNSt6vectorIS_IP8creatureSaIS1_EESaIS3_EE3endEv, symObjAddr: 0x93D4, symBinAddr: 0x10000D248, symSize: 0x28 }
  - { offsetInCU: 0x200CE, offset: 0x200CE, size: 0x8, addend: 0x0, symName: __ZNSt6vectorIP8creatureSaIS1_EE18_M_fill_initializeEmRKS1_, symObjAddr: 0x8E80, symBinAddr: 0x10000CCF4, symSize: 0x58 }
  - { offsetInCU: 0x200D6, offset: 0x200D6, size: 0x8, addend: 0x0, symName: __ZNSt6vectorIS_IP8creatureSaIS1_EESaIS3_EE14_M_fill_insertEN9__gnu_cxx17__normal_iteratorIPS3_S5_EEmRKS3_, symObjAddr: 0x8ED8, symBinAddr: 0x10000CD4C, symSize: 0x4FC }
  - { offsetInCU: 0x20198, offset: 0x20198, size: 0x8, addend: 0x0, symName: __ZNSt12_Vector_baseIP8creatureSaIS1_EEC2EmRKS2_, symObjAddr: 0x8E2C, symBinAddr: 0x10000CCA0, symSize: 0x54 }
  - { offsetInCU: 0x201A0, offset: 0x201A0, size: 0x8, addend: 0x0, symName: __ZNSt6vectorIP8creatureSaIS1_EE18_M_fill_initializeEmRKS1_, symObjAddr: 0x8E80, symBinAddr: 0x10000CCF4, symSize: 0x58 }
  - { offsetInCU: 0x201B2, offset: 0x201B2, size: 0x8, addend: 0x0, symName: __ZNSt6vectorIP8creatureSaIS1_EE17_S_check_init_lenEmRKS2_, symObjAddr: 0x8DA8, symBinAddr: 0x10000CC1C, symSize: 0x84 }
  - { offsetInCU: 0x201BA, offset: 0x201BA, size: 0x8, addend: 0x0, symName: __ZNSt12_Vector_baseIP8creatureSaIS1_EEC2EmRKS2_, symObjAddr: 0x8E2C, symBinAddr: 0x10000CCA0, symSize: 0x54 }
  - { offsetInCU: 0x202F7, offset: 0x202F7, size: 0x8, addend: 0x0, symName: __ZNSt12_Vector_baseIP8creatureSaIS1_EE19_M_get_Tp_allocatorEv, symObjAddr: 0x8D94, symBinAddr: 0x10000CC08, symSize: 0x14 }
  - { offsetInCU: 0x202FF, offset: 0x202FF, size: 0x8, addend: 0x0, symName: __ZNSt6vectorIP8creatureSaIS1_EE17_S_check_init_lenEmRKS2_, symObjAddr: 0x8DA8, symBinAddr: 0x10000CC1C, symSize: 0x84 }
  - { offsetInCU: 0x20328, offset: 0x20328, size: 0x8, addend: 0x0, symName: __ZNSt12_Vector_baseIP8creatureSaIS1_EE13_M_deallocateEPS1_m, symObjAddr: 0x8D3C, symBinAddr: 0x10000CBB0, symSize: 0x58 }
  - { offsetInCU: 0x20330, offset: 0x20330, size: 0x8, addend: 0x0, symName: __ZNSt12_Vector_baseIP8creatureSaIS1_EE19_M_get_Tp_allocatorEv, symObjAddr: 0x8D94, symBinAddr: 0x10000CC08, symSize: 0x14 }
  - { offsetInCU: 0x20415, offset: 0x20415, size: 0x8, addend: 0x0, symName: __ZNSt15__new_allocatorIP8creatureED2Ev, symObjAddr: 0x8D28, symBinAddr: 0x10000CB9C, symSize: 0x14 }
  - { offsetInCU: 0x2041D, offset: 0x2041D, size: 0x8, addend: 0x0, symName: __ZNSt12_Vector_baseIP8creatureSaIS1_EE13_M_deallocateEPS1_m, symObjAddr: 0x8D3C, symBinAddr: 0x10000CBB0, symSize: 0x58 }
  - { offsetInCU: 0x20477, offset: 0x20477, size: 0x8, addend: 0x0, symName: __ZNSt12_Vector_baseIP8creatureSaIS1_EE17_Vector_impl_dataC1Ev, symObjAddr: 0x8CFC, symBinAddr: 0x10000CB70, symSize: 0x2C }
  - { offsetInCU: 0x2047F, offset: 0x2047F, size: 0x8, addend: 0x0, symName: __ZNSt15__new_allocatorIP8creatureED2Ev, symObjAddr: 0x8D28, symBinAddr: 0x10000CB9C, symSize: 0x14 }
  - { offsetInCU: 0x204A7, offset: 0x204A7, size: 0x8, addend: 0x0, symName: __ZNSt12_Vector_baseIP8creatureSaIS1_EE17_Vector_impl_dataC2Ev, symObjAddr: 0x8CD0, symBinAddr: 0x10000CB44, symSize: 0x2C }
  - { offsetInCU: 0x204AF, offset: 0x204AF, size: 0x8, addend: 0x0, symName: __ZNSt12_Vector_baseIP8creatureSaIS1_EE17_Vector_impl_dataC1Ev, symObjAddr: 0x8CFC, symBinAddr: 0x10000CB70, symSize: 0x2C }
  - { offsetInCU: 0x204F1, offset: 0x204F1, size: 0x8, addend: 0x0, symName: __ZNSt12_Vector_baseISt6vectorIP8creatureSaIS2_EESaIS4_EE19_M_get_Tp_allocatorEv, symObjAddr: 0x8CBC, symBinAddr: 0x10000CB30, symSize: 0x14 }
  - { offsetInCU: 0x204F9, offset: 0x204F9, size: 0x8, addend: 0x0, symName: __ZNSt12_Vector_baseIP8creatureSaIS1_EE17_Vector_impl_dataC2Ev, symObjAddr: 0x8CD0, symBinAddr: 0x10000CB44, symSize: 0x2C }
  - { offsetInCU: 0x20522, offset: 0x20522, size: 0x8, addend: 0x0, symName: __ZNSt12_Vector_baseISt6vectorIP8creatureSaIS2_EESaIS4_EE13_M_deallocateEPS4_m, symObjAddr: 0x8C64, symBinAddr: 0x10000CAD8, symSize: 0x58 }
  - { offsetInCU: 0x2052A, offset: 0x2052A, size: 0x8, addend: 0x0, symName: __ZNSt12_Vector_baseISt6vectorIP8creatureSaIS2_EESaIS4_EE19_M_get_Tp_allocatorEv, symObjAddr: 0x8CBC, symBinAddr: 0x10000CB30, symSize: 0x14 }
  - { offsetInCU: 0x20621, offset: 0x20621, size: 0x8, addend: 0x0, symName: __ZNSt15__new_allocatorISt6vectorIP8creatureSaIS2_EEED2Ev, symObjAddr: 0x8C50, symBinAddr: 0x10000CAC4, symSize: 0x14 }
  - { offsetInCU: 0x20629, offset: 0x20629, size: 0x8, addend: 0x0, symName: __ZNSt12_Vector_baseISt6vectorIP8creatureSaIS2_EESaIS4_EE13_M_deallocateEPS4_m, symObjAddr: 0x8C64, symBinAddr: 0x10000CAD8, symSize: 0x58 }
  - { offsetInCU: 0x20683, offset: 0x20683, size: 0x8, addend: 0x0, symName: __ZNSt12_Vector_baseISt6vectorIP8creatureSaIS2_EESaIS4_EE17_Vector_impl_dataC2Ev, symObjAddr: 0x8C24, symBinAddr: 0x10000CA98, symSize: 0x2C }
  - { offsetInCU: 0x2068B, offset: 0x2068B, size: 0x8, addend: 0x0, symName: __ZNSt15__new_allocatorISt6vectorIP8creatureSaIS2_EEED2Ev, symObjAddr: 0x8C50, symBinAddr: 0x10000CAC4, symSize: 0x14 }
  - { offsetInCU: 0x207AB, offset: 0x207AB, size: 0x8, addend: 0x0, symName: __ZNSt6chrono13duration_castINS_8durationIxSt5ratioILl1ELl1000000000EEEExS2_ILl1ELl1000EEEENSt9enable_ifIXsrNS_13__is_durationIT_EE5valueES8_E4typeERKNS1_IT0_T1_EE, symObjAddr: 0x8C08, symBinAddr: 0x10000CA7C, symSize: 0x1C }
  - { offsetInCU: 0x207B3, offset: 0x207B3, size: 0x8, addend: 0x0, symName: __ZNSt12_Vector_baseISt6vectorIP8creatureSaIS2_EESaIS4_EE17_Vector_impl_dataC2Ev, symObjAddr: 0x8C24, symBinAddr: 0x10000CA98, symSize: 0x2C }
  - { offsetInCU: 0x207D5, offset: 0x207D5, size: 0x8, addend: 0x0, symName: __ZNSt6chronomiIxSt5ratioILl1ELl1000EExS1_ILl1ELl1EEEENSt11common_typeIJNS_8durationIT_T0_EENS5_IT1_T2_EEEE4typeERKS8_RKSB_, symObjAddr: 0x8BA4, symBinAddr: 0x10000CA18, symSize: 0x64 }
  - { offsetInCU: 0x207DD, offset: 0x207DD, size: 0x8, addend: 0x0, symName: __ZNSt6chrono13duration_castINS_8durationIxSt5ratioILl1ELl1000000000EEEExS2_ILl1ELl1000EEEENSt9enable_ifIXsrNS_13__is_durationIT_EE5valueES8_E4typeERKNS1_IT0_T1_EE, symObjAddr: 0x8C08, symBinAddr: 0x10000CA7C, symSize: 0x1C }
  - { offsetInCU: 0x208AB, offset: 0x208AB, size: 0x8, addend: 0x0, symName: __ZNSt6chrono13duration_castINS_8durationIxSt5ratioILl1ELl1EEEExS2_ILl1ELl1000EEEENSt9enable_ifIXsrNS_13__is_durationIT_EE5valueES8_E4typeERKNS1_IT0_T1_EE, symObjAddr: 0x8B88, symBinAddr: 0x10000C9FC, symSize: 0x1C }
  - { offsetInCU: 0x208B3, offset: 0x208B3, size: 0x8, addend: 0x0, symName: __ZNSt6chronomiIxSt5ratioILl1ELl1000EExS1_ILl1ELl1EEEENSt11common_typeIJNS_8durationIT_T0_EENS5_IT1_T2_EEEE4typeERKS8_RKSB_, symObjAddr: 0x8BA4, symBinAddr: 0x10000CA18, symSize: 0x64 }
  - { offsetInCU: 0x208D8, offset: 0x208D8, size: 0x8, addend: 0x0, symName: __ZNSt6chronoleIxSt5ratioILl1ELl1000EExS2_EEbRKNS_8durationIT_T0_EERKNS3_IT1_T2_EE, symObjAddr: 0x8B58, symBinAddr: 0x10000C9CC, symSize: 0x30 }
  - { offsetInCU: 0x208E0, offset: 0x208E0, size: 0x8, addend: 0x0, symName: __ZNSt6chrono13duration_castINS_8durationIxSt5ratioILl1ELl1EEEExS2_ILl1ELl1000EEEENSt9enable_ifIXsrNS_13__is_durationIT_EE5valueES8_E4typeERKNS1_IT0_T1_EE, symObjAddr: 0x8B88, symBinAddr: 0x10000C9FC, symSize: 0x1C }
  - { offsetInCU: 0x208B8, offset: 0x208B8, size: 0x8, addend: 0x0, symName: __ZNSt6chrono8durationIxSt5ratioILl1ELl1000EEE4zeroEv, symObjAddr: 0x8B30, symBinAddr: 0x10000C9A4, symSize: 0x28 }
  - { offsetInCU: 0x208C0, offset: 0x208C0, size: 0x8, addend: 0x0, symName: __ZNSt6chronoleIxSt5ratioILl1ELl1000EExS2_EEbRKNS_8durationIT_T0_EERKNS3_IT1_T2_EE, symObjAddr: 0x8B58, symBinAddr: 0x10000C9CC, symSize: 0x30 }
  - { offsetInCU: 0x20912, offset: 0x20912, size: 0x8, addend: 0x0, symName: __ZNSt24uniform_int_distributionImEclISt23mersenne_twister_engineIjLm32ELm624ELm397ELm31ELj2567483615ELm11ELj4294967295ELm7ELj2636928640ELm15ELj4022730752ELm18ELj1812433253EEEEmRT_RKNS0_10param_typeE, symObjAddr: 0x89F4, symBinAddr: 0x10000C868, symSize: 0x13C }
  - { offsetInCU: 0x2091A, offset: 0x2091A, size: 0x8, addend: 0x0, symName: __ZNSt6chrono8durationIxSt5ratioILl1ELl1000EEE4zeroEv, symObjAddr: 0x8B30, symBinAddr: 0x10000C9A4, symSize: 0x28 }
  - { offsetInCU: 0x20B12, offset: 0x20B12, size: 0x8, addend: 0x0, symName: __ZNSt24uniform_int_distributionImE10param_typeC1Emm, symObjAddr: 0x897C, symBinAddr: 0x10000C7F0, symSize: 0x78 }
  - { offsetInCU: 0x20B1A, offset: 0x20B1A, size: 0x8, addend: 0x0, symName: __ZNSt24uniform_int_distributionImEclISt23mersenne_twister_engineIjLm32ELm624ELm397ELm31ELj2567483615ELm11ELj4294967295ELm7ELj2636928640ELm15ELj4022730752ELm18ELj1812433253EEEEmRT_RKNS0_10param_typeE, symObjAddr: 0x89F4, symBinAddr: 0x10000C868, symSize: 0x13C }
  - { offsetInCU: 0x20B28, offset: 0x20B28, size: 0x8, addend: 0x0, symName: __ZN9__gnu_cxx17__normal_iteratorIPP8creatureSt6vectorIS2_SaIS2_EEEppEv, symObjAddr: 0x8954, symBinAddr: 0x10000C7C8, symSize: 0x28 }
  - { offsetInCU: 0x20B30, offset: 0x20B30, size: 0x8, addend: 0x0, symName: __ZNSt24uniform_int_distributionImE10param_typeC1Emm, symObjAddr: 0x897C, symBinAddr: 0x10000C7F0, symSize: 0x78 }
  - { offsetInCU: 0x20B9B, offset: 0x20B9B, size: 0x8, addend: 0x0, symName: __ZNSt24uniform_int_distributionImEC1Ev, symObjAddr: 0x892C, symBinAddr: 0x10000C7A0, symSize: 0x28 }
  - { offsetInCU: 0x20BA3, offset: 0x20BA3, size: 0x8, addend: 0x0, symName: __ZN9__gnu_cxx17__normal_iteratorIPP8creatureSt6vectorIS2_SaIS2_EEEppEv, symObjAddr: 0x8954, symBinAddr: 0x10000C7C8, symSize: 0x28 }
  - { offsetInCU: 0x20D1E, offset: 0x20D1E, size: 0x8, addend: 0x0, symName: __ZSt22__gen_two_uniform_intsImRSt23mersenne_twister_engineIjLm32ELm624ELm397ELm31ELj2567483615ELm11ELj4294967295ELm7ELj2636928640ELm15ELj4022730752ELm18ELj1812433253EEESt4pairIT_S4_ES4_S4_OT0_, symObjAddr: 0x88A8, symBinAddr: 0x10000C71C, symSize: 0x84 }
  - { offsetInCU: 0x20D26, offset: 0x20D26, size: 0x8, addend: 0x0, symName: __ZNSt24uniform_int_distributionImEC1Ev, symObjAddr: 0x892C, symBinAddr: 0x10000C7A0, symSize: 0x28 }
  - { offsetInCU: 0x20CCB, offset: 0x20CCB, size: 0x8, addend: 0x0, symName: __ZN9__gnu_cxxneIPP8creatureSt6vectorIS2_SaIS2_EEEEbRKNS_17__normal_iteratorIT_T0_EESC_, symObjAddr: 0x8864, symBinAddr: 0x10000C6D8, symSize: 0x44 }
  - { offsetInCU: 0x20CD3, offset: 0x20CD3, size: 0x8, addend: 0x0, symName: __ZSt22__gen_two_uniform_intsImRSt23mersenne_twister_engineIjLm32ELm624ELm397ELm31ELj2567483615ELm11ELj4294967295ELm7ELj2636928640ELm15ELj4022730752ELm18ELj1812433253EEESt4pairIT_S4_ES4_S4_OT0_, symObjAddr: 0x88A8, symBinAddr: 0x10000C71C, symSize: 0x84 }
  - { offsetInCU: 0x20DA5, offset: 0x20DA5, size: 0x8, addend: 0x0, symName: __ZSt9iter_swapIN9__gnu_cxx17__normal_iteratorIPP8creatureSt6vectorIS3_SaIS3_EEEES8_EvT_T0_, symObjAddr: 0x8820, symBinAddr: 0x10000C694, symSize: 0x44 }
  - { offsetInCU: 0x20DAD, offset: 0x20DAD, size: 0x8, addend: 0x0, symName: __ZN9__gnu_cxxneIPP8creatureSt6vectorIS2_SaIS2_EEEEbRKNS_17__normal_iteratorIT_T0_EESC_, symObjAddr: 0x8864, symBinAddr: 0x10000C6D8, symSize: 0x44 }
  - { offsetInCU: 0x20D1E, offset: 0x20D1E, size: 0x8, addend: 0x0, symName: __ZNSt24uniform_int_distributionImEclISt23mersenne_twister_engineIjLm32ELm624ELm397ELm31ELj2567483615ELm11ELj4294967295ELm7ELj2636928640ELm15ELj4022730752ELm18ELj1812433253EEEEmRT_, symObjAddr: 0x87F4, symBinAddr: 0x10000C668, symSize: 0x2C }
  - { offsetInCU: 0x20D26, offset: 0x20D26, size: 0x8, addend: 0x0, symName: __ZSt9iter_swapIN9__gnu_cxx17__normal_iteratorIPP8creatureSt6vectorIS3_SaIS3_EEEES8_EvT_T0_, symObjAddr: 0x8820, symBinAddr: 0x10000C694, symSize: 0x44 }
  - { offsetInCU: 0x20D70, offset: 0x20D70, size: 0x8, addend: 0x0, symName: __ZN9__gnu_cxx17__normal_iteratorIPP8creatureSt6vectorIS2_SaIS2_EEEppEi, symObjAddr: 0x87B4, symBinAddr: 0x10000C628, symSize: 0x40 }
  - { offsetInCU: 0x20D78, offset: 0x20D78, size: 0x8, addend: 0x0, symName: __ZNSt24uniform_int_distributionImEclISt23mersenne_twister_engineIjLm32ELm624ELm397ELm31ELj2567483615ELm11ELj4294967295ELm7ELj2636928640ELm15ELj4022730752ELm18ELj1812433253EEEEmRT_, symObjAddr: 0x87F4, symBinAddr: 0x10000C668, symSize: 0x2C }
  - { offsetInCU: 0x20E13, offset: 0x20E13, size: 0x8, addend: 0x0, symName: __ZNSt24uniform_int_distributionImEC1Emm, symObjAddr: 0x8784, symBinAddr: 0x10000C5F8, symSize: 0x30 }
  - { offsetInCU: 0x20E1B, offset: 0x20E1B, size: 0x8, addend: 0x0, symName: __ZN9__gnu_cxx17__normal_iteratorIPP8creatureSt6vectorIS2_SaIS2_EEEppEi, symObjAddr: 0x87B4, symBinAddr: 0x10000C628, symSize: 0x40 }
  - { offsetInCU: 0x20E35, offset: 0x20E35, size: 0x8, addend: 0x0, symName: __ZNK9__gnu_cxx17__normal_iteratorIPP8creatureSt6vectorIS2_SaIS2_EEEplEl, symObjAddr: 0x8744, symBinAddr: 0x10000C5B8, symSize: 0x40 }
  - { offsetInCU: 0x20E3D, offset: 0x20E3D, size: 0x8, addend: 0x0, symName: __ZNSt24uniform_int_distributionImEC1Emm, symObjAddr: 0x8784, symBinAddr: 0x10000C5F8, symSize: 0x30 }
  - { offsetInCU: 0x20F19, offset: 0x20F19, size: 0x8, addend: 0x0, symName: __ZN9__gnu_cxxmiIPP8creatureSt6vectorIS2_SaIS2_EEEENS_17__normal_iteratorIT_T0_E15difference_typeERKSA_SD_, symObjAddr: 0x8704, symBinAddr: 0x10000C578, symSize: 0x40 }
  - { offsetInCU: 0x20F21, offset: 0x20F21, size: 0x8, addend: 0x0, symName: __ZNK9__gnu_cxx17__normal_iteratorIPP8creatureSt6vectorIS2_SaIS2_EEEplEl, symObjAddr: 0x8744, symBinAddr: 0x10000C5B8, symSize: 0x40 }
  - { offsetInCU: 0x20F77, offset: 0x20F77, size: 0x8, addend: 0x0, symName: __ZN9__gnu_cxxeqIPP8creatureSt6vectorIS2_SaIS2_EEEEbRKNS_17__normal_iteratorIT_T0_EESC_, symObjAddr: 0x86C0, symBinAddr: 0x10000C534, symSize: 0x44 }
  - { offsetInCU: 0x20F7F, offset: 0x20F7F, size: 0x8, addend: 0x0, symName: __ZN9__gnu_cxxmiIPP8creatureSt6vectorIS2_SaIS2_EEEENS_17__normal_iteratorIT_T0_E15difference_typeERKSA_SD_, symObjAddr: 0x8704, symBinAddr: 0x10000C578, symSize: 0x40 }
  - { offsetInCU: 0x20FD3, offset: 0x20FD3, size: 0x8, addend: 0x0, symName: __ZN9__gnu_cxx17__normal_iteratorIPP8creatureSt6vectorIS2_SaIS2_EEEC1ERKS3_, symObjAddr: 0x8698, symBinAddr: 0x10000C50C, symSize: 0x28 }
  - { offsetInCU: 0x20FDB, offset: 0x20FDB, size: 0x8, addend: 0x0, symName: __ZN9__gnu_cxxeqIPP8creatureSt6vectorIS2_SaIS2_EEEEbRKNS_17__normal_iteratorIT_T0_EESC_, symObjAddr: 0x86C0, symBinAddr: 0x10000C534, symSize: 0x44 }
  - { offsetInCU: 0x20FC5, offset: 0x20FC5, size: 0x8, addend: 0x0, symName: __ZNSt6vectorIP8creatureSaIS1_EE15_M_erase_at_endEPS1_, symObjAddr: 0x8610, symBinAddr: 0x10000C484, symSize: 0x88 }
  - { offsetInCU: 0x20FCD, offset: 0x20FCD, size: 0x8, addend: 0x0, symName: __ZN9__gnu_cxx17__normal_iteratorIPP8creatureSt6vectorIS2_SaIS2_EEEC1ERKS3_, symObjAddr: 0x8698, symBinAddr: 0x10000C50C, symSize: 0x28 }
  - { offsetInCU: 0x21074, offset: 0x21074, size: 0x8, addend: 0x0, symName: __ZNSt6vectorIP8creatureSaIS1_EE17_M_realloc_insertIJRKS1_EEEvN9__gnu_cxx17__normal_iteratorIPS1_S3_EEDpOT_, symObjAddr: 0x8450, symBinAddr: 0x10000C2C4, symSize: 0x1C0 }
  - { offsetInCU: 0x2107C, offset: 0x2107C, size: 0x8, addend: 0x0, symName: __ZNSt6vectorIP8creatureSaIS1_EE15_M_erase_at_endEPS1_, symObjAddr: 0x8610, symBinAddr: 0x10000C484, symSize: 0x88 }
  - { offsetInCU: 0x21240, offset: 0x21240, size: 0x8, addend: 0x0, symName: __ZNKSt6vectorIP8creatureSaIS1_EEixEm, symObjAddr: 0x8428, symBinAddr: 0x10000C29C, symSize: 0x28 }
  - { offsetInCU: 0x21248, offset: 0x21248, size: 0x8, addend: 0x0, symName: __ZNSt6vectorIP8creatureSaIS1_EE17_M_realloc_insertIJRKS1_EEEvN9__gnu_cxx17__normal_iteratorIPS1_S3_EEDpOT_, symObjAddr: 0x8450, symBinAddr: 0x10000C2C4, symSize: 0x1C0 }
  - { offsetInCU: 0x21319, offset: 0x21319, size: 0x8, addend: 0x0, symName: __ZN9__gnu_cxxeqIPKP8creatureSt6vectorIS2_SaIS2_EEEEbRKNS_17__normal_iteratorIT_T0_EESD_, symObjAddr: 0x83E4, symBinAddr: 0x10000C258, symSize: 0x44 }
  - { offsetInCU: 0x21321, offset: 0x21321, size: 0x8, addend: 0x0, symName: __ZNKSt6vectorIP8creatureSaIS1_EEixEm, symObjAddr: 0x8428, symBinAddr: 0x10000C29C, symSize: 0x28 }
  - { offsetInCU: 0x21300, offset: 0x21300, size: 0x8, addend: 0x0, symName: __ZNKSt6vectorIP8creatureSaIS1_EE3endEv, symObjAddr: 0x83BC, symBinAddr: 0x10000C230, symSize: 0x28 }
  - { offsetInCU: 0x21308, offset: 0x21308, size: 0x8, addend: 0x0, symName: __ZN9__gnu_cxxeqIPKP8creatureSt6vectorIS2_SaIS2_EEEEbRKNS_17__normal_iteratorIT_T0_EESD_, symObjAddr: 0x83E4, symBinAddr: 0x10000C258, symSize: 0x44 }
  - { offsetInCU: 0x21331, offset: 0x21331, size: 0x8, addend: 0x0, symName: __ZNKSt6vectorIP8creatureSaIS1_EE5beginEv, symObjAddr: 0x8398, symBinAddr: 0x10000C20C, symSize: 0x24 }
  - { offsetInCU: 0x21339, offset: 0x21339, size: 0x8, addend: 0x0, symName: __ZNKSt6vectorIP8creatureSaIS1_EE3endEv, symObjAddr: 0x83BC, symBinAddr: 0x10000C230, symSize: 0x28 }
  - { offsetInCU: 0x2141C, offset: 0x2141C, size: 0x8, addend: 0x0, symName: __ZN9__gnu_cxxeqIPKSt6vectorIP8creatureSaIS3_EES1_IS5_SaIS5_EEEEbRKNS_17__normal_iteratorIT_T0_EESF_, symObjAddr: 0x8354, symBinAddr: 0x10000C1C8, symSize: 0x44 }
  - { offsetInCU: 0x21424, offset: 0x21424, size: 0x8, addend: 0x0, symName: __ZNKSt6vectorIP8creatureSaIS1_EE5beginEv, symObjAddr: 0x8398, symBinAddr: 0x10000C20C, symSize: 0x24 }
  - { offsetInCU: 0x213DC, offset: 0x213DC, size: 0x8, addend: 0x0, symName: __ZNKSt6vectorIS_IP8creatureSaIS1_EESaIS3_EE3endEv, symObjAddr: 0x832C, symBinAddr: 0x10000C1A0, symSize: 0x28 }
  - { offsetInCU: 0x213E4, offset: 0x213E4, size: 0x8, addend: 0x0, symName: __ZN9__gnu_cxxeqIPKSt6vectorIP8creatureSaIS3_EES1_IS5_SaIS5_EEEEbRKNS_17__normal_iteratorIT_T0_EESF_, symObjAddr: 0x8354, symBinAddr: 0x10000C1C8, symSize: 0x44 }
  - { offsetInCU: 0x2140D, offset: 0x2140D, size: 0x8, addend: 0x0, symName: __ZNKSt6vectorIS_IP8creatureSaIS1_EESaIS3_EE5beginEv, symObjAddr: 0x8308, symBinAddr: 0x10000C17C, symSize: 0x24 }
  - { offsetInCU: 0x21415, offset: 0x21415, size: 0x8, addend: 0x0, symName: __ZNKSt6vectorIS_IP8creatureSaIS1_EESaIS3_EE3endEv, symObjAddr: 0x832C, symBinAddr: 0x10000C1A0, symSize: 0x28 }
  - { offsetInCU: 0x2143E, offset: 0x2143E, size: 0x8, addend: 0x0, symName: __ZNSt8__detail21_Hash_node_value_baseISt4pairIKNSt7__cxx1112basic_stringIcSt11char_traitsIcESaIcEEES7_EE9_M_valptrEv, symObjAddr: 0x82EC, symBinAddr: 0x10000C160, symSize: 0x1C }
  - { offsetInCU: 0x21446, offset: 0x21446, size: 0x8, addend: 0x0, symName: __ZNKSt6vectorIS_IP8creatureSaIS1_EESaIS3_EE5beginEv, symObjAddr: 0x8308, symBinAddr: 0x10000C17C, symSize: 0x24 }
  - { offsetInCU: 0x214CC, offset: 0x214CC, size: 0x8, addend: 0x0, symName: __ZNSt24uniform_int_distributionIiEclISt23mersenne_twister_engineIjLm32ELm624ELm397ELm31ELj2567483615ELm11ELj4294967295ELm7ELj2636928640ELm15ELj4022730752ELm18ELj1812433253EEEEiRT_RKNS0_10param_typeE, symObjAddr: 0x8244, symBinAddr: 0x10000C0B8, symSize: 0xA8 }
  - { offsetInCU: 0x214D4, offset: 0x214D4, size: 0x8, addend: 0x0, symName: __ZNSt8__detail21_Hash_node_value_baseISt4pairIKNSt7__cxx1112basic_stringIcSt11char_traitsIcESaIcEEES7_EE9_M_valptrEv, symObjAddr: 0x82EC, symBinAddr: 0x10000C160, symSize: 0x1C }
  - { offsetInCU: 0x21632, offset: 0x21632, size: 0x8, addend: 0x0, symName: __ZNSt13unordered_mapINSt7__cxx1112basic_stringIcSt11char_traitsIcESaIcEEES5_St4hashIS5_ESt8equal_toIS5_ESaISt4pairIKS5_S5_EEE5beginEv, symObjAddr: 0x8228, symBinAddr: 0x10000C09C, symSize: 0x1C }
  - { offsetInCU: 0x2163A, offset: 0x2163A, size: 0x8, addend: 0x0, symName: __ZNSt24uniform_int_distributionIiEclISt23mersenne_twister_engineIjLm32ELm624ELm397ELm31ELj2567483615ELm11ELj4294967295ELm7ELj2636928640ELm15ELj4022730752ELm18ELj1812433253EEEEiRT_RKNS0_10param_typeE, symObjAddr: 0x8244, symBinAddr: 0x10000C0B8, symSize: 0xA8 }
  - { offsetInCU: 0x216D4, offset: 0x216D4, size: 0x8, addend: 0x0, symName: __ZNSt24uniform_int_distributionIiE10param_typeC1Eii, symObjAddr: 0x81B0, symBinAddr: 0x10000C024, symSize: 0x78 }
  - { offsetInCU: 0x216DC, offset: 0x216DC, size: 0x8, addend: 0x0, symName: __ZNSt13unordered_mapINSt7__cxx1112basic_stringIcSt11char_traitsIcESaIcEEES5_St4hashIS5_ESt8equal_toIS5_ESaISt4pairIKS5_S5_EEE5beginEv, symObjAddr: 0x8228, symBinAddr: 0x10000C09C, symSize: 0x1C }
  - { offsetInCU: 0x216EA, offset: 0x216EA, size: 0x8, addend: 0x0, symName: __ZNKSt10_HashtableINSt7__cxx1112basic_stringIcSt11char_traitsIcESaIcEEESt4pairIKS5_S5_ESaIS8_ENSt8__detail10_Select1stESt8equal_toIS5_ESt4hashIS5_ENSA_18_Mod_range_hashingENSA_20_Default_ranged_hashENSA_20_Prime_rehash_policyENSA_17_Hashtable_traitsILb1ELb0ELb1EEEE4sizeEv, symObjAddr: 0x8198, symBinAddr: 0x10000C00C, symSize: 0x18 }
  - { offsetInCU: 0x216F2, offset: 0x216F2, size: 0x8, addend: 0x0, symName: __ZNSt24uniform_int_distributionIiE10param_typeC1Eii, symObjAddr: 0x81B0, symBinAddr: 0x10000C024, symSize: 0x78 }
  - { offsetInCU: 0x21720, offset: 0x21720, size: 0x8, addend: 0x0, symName: __ZNSt23mersenne_twister_engineIjLm32ELm624ELm397ELm31ELj2567483615ELm11ELj4294967295ELm7ELj2636928640ELm15ELj4022730752ELm18ELj1812433253EE4seedEj, symObjAddr: 0x80CC, symBinAddr: 0x10000BF40, symSize: 0xCC }
  - { offsetInCU: 0x21728, offset: 0x21728, size: 0x8, addend: 0x0, symName: __ZNKSt10_HashtableINSt7__cxx1112basic_stringIcSt11char_traitsIcESaIcEEESt4pairIKS5_S5_ESaIS8_ENSt8__detail10_Select1stESt8equal_toIS5_ESt4hashIS5_ENSA_18_Mod_range_hashingENSA_20_Default_ranged_hashENSA_20_Prime_rehash_policyENSA_17_Hashtable_traitsILb1ELb0ELb1EEEE4sizeEv, symObjAddr: 0x8198, symBinAddr: 0x10000C00C, symSize: 0x18 }
  - { offsetInCU: 0x2182F, offset: 0x2182F, size: 0x8, addend: 0x0, symName: __ZNSt4pairIbjEC1IbjLb1EEEOT_OT0_, symObjAddr: 0x8084, symBinAddr: 0x10000BEF8, symSize: 0x48 }
  - { offsetInCU: 0x21837, offset: 0x21837, size: 0x8, addend: 0x0, symName: __ZNSt23mersenne_twister_engineIjLm32ELm624ELm397ELm31ELj2567483615ELm11ELj4294967295ELm7ELj2636928640ELm15ELj4022730752ELm18ELj1812433253EE4seedEj, symObjAddr: 0x80CC, symBinAddr: 0x10000BF40, symSize: 0xCC }
  - { offsetInCU: 0x218C0, offset: 0x218C0, size: 0x8, addend: 0x0, symName: __ZSt7forwardIjEOT_RNSt16remove_referenceIS0_E4typeE, symObjAddr: 0x8070, symBinAddr: 0x10000BEE4, symSize: 0x14 }
  - { offsetInCU: 0x218C8, offset: 0x218C8, size: 0x8, addend: 0x0, symName: __ZNSt4pairIbjEC1IbjLb1EEEOT_OT0_, symObjAddr: 0x8084, symBinAddr: 0x10000BEF8, symSize: 0x48 }
  - { offsetInCU: 0x21933, offset: 0x21933, size: 0x8, addend: 0x0, symName: __ZSt4moveIRP8creatureEONSt16remove_referenceIT_E4typeEOS4_, symObjAddr: 0x805C, symBinAddr: 0x10000BED0, symSize: 0x14 }
  - { offsetInCU: 0x2193B, offset: 0x2193B, size: 0x8, addend: 0x0, symName: __ZSt7forwardIjEOT_RNSt16remove_referenceIS0_E4typeE, symObjAddr: 0x8070, symBinAddr: 0x10000BEE4, symSize: 0x14 }
  - { offsetInCU: 0x21939, offset: 0x21939, size: 0x8, addend: 0x0, symName: __ZNSt6vectorIP8creatureSaIS1_EEixEm, symObjAddr: 0x8034, symBinAddr: 0x10000BEA8, symSize: 0x28 }
  - { offsetInCU: 0x21941, offset: 0x21941, size: 0x8, addend: 0x0, symName: __ZSt4moveIRP8creatureEONSt16remove_referenceIT_E4typeEOS4_, symObjAddr: 0x805C, symBinAddr: 0x10000BED0, symSize: 0x14 }
  - { offsetInCU: 0x2197F, offset: 0x2197F, size: 0x8, addend: 0x0, symName: __ZNKSt6vectorIP8creatureSaIS1_EE14_M_range_checkEm, symObjAddr: 0x7FC8, symBinAddr: 0x10000BE3C, symSize: 0x6C }
  - { offsetInCU: 0x21987, offset: 0x21987, size: 0x8, addend: 0x0, symName: __ZNSt6vectorIP8creatureSaIS1_EEixEm, symObjAddr: 0x8034, symBinAddr: 0x10000BEA8, symSize: 0x28 }
  - { offsetInCU: 0x219C5, offset: 0x219C5, size: 0x8, addend: 0x0, symName: __ZNKSt6vectorIS_IP8creatureSaIS1_EESaIS3_EE14_M_range_checkEm, symObjAddr: 0x7F5C, symBinAddr: 0x10000BDD0, symSize: 0x6C }
  - { offsetInCU: 0x219CD, offset: 0x219CD, size: 0x8, addend: 0x0, symName: __ZNKSt6vectorIP8creatureSaIS1_EE14_M_range_checkEm, symObjAddr: 0x7FC8, symBinAddr: 0x10000BE3C, symSize: 0x6C }
  - { offsetInCU: 0x21A4C, offset: 0x21A4C, size: 0x8, addend: 0x0, symName: __ZSt4moveIRiEONSt16remove_referenceIT_E4typeEOS2_, symObjAddr: 0x7F48, symBinAddr: 0x10000BDBC, symSize: 0x14 }
  - { offsetInCU: 0x21A54, offset: 0x21A54, size: 0x8, addend: 0x0, symName: __ZNKSt6vectorIS_IP8creatureSaIS1_EESaIS3_EE14_M_range_checkEm, symObjAddr: 0x7F5C, symBinAddr: 0x10000BDD0, symSize: 0x6C }
  - { offsetInCU: 0x21B98, offset: 0x21B98, size: 0x8, addend: 0x0, symName: __ZNSt10_HashtableINSt7__cxx1112basic_stringIcSt11char_traitsIcESaIcEEESt4pairIKS5_S5_ESaIS8_ENSt8__detail10_Select1stESt8equal_toIS5_ESt4hashIS5_ENSA_18_Mod_range_hashingENSA_20_Default_ranged_hashENSA_20_Prime_rehash_policyENSA_17_Hashtable_traitsILb1ELb0ELb1EEEED1Ev, symObjAddr: 0x7F18, symBinAddr: 0x10000BD8C, symSize: 0x30 }
  - { offsetInCU: 0x21BA0, offset: 0x21BA0, size: 0x8, addend: 0x0, symName: __ZSt4moveIRiEONSt16remove_referenceIT_E4typeEOS2_, symObjAddr: 0x7F48, symBinAddr: 0x10000BDBC, symSize: 0x14 }
  - { offsetInCU: 0x21B6B, offset: 0x21B6B, size: 0x8, addend: 0x0, symName: __ZNSt8__detail16_Hashtable_allocISaINS_10_Hash_nodeISt4pairIKNSt7__cxx1112basic_stringIcSt11char_traitsIcESaIcEEES8_ELb1EEEEED2Ev, symObjAddr: 0x7EF8, symBinAddr: 0x10000BD6C, symSize: 0x20 }
  - { offsetInCU: 0x21B73, offset: 0x21B73, size: 0x8, addend: 0x0, symName: __ZNSt10_HashtableINSt7__cxx1112basic_stringIcSt11char_traitsIcESaIcEEESt4pairIKS5_S5_ESaIS8_ENSt8__detail10_Select1stESt8equal_toIS5_ESt4hashIS5_ENSA_18_Mod_range_hashingENSA_20_Default_ranged_hashENSA_20_Prime_rehash_policyENSA_17_Hashtable_traitsILb1ELb0ELb1EEEED1Ev, symObjAddr: 0x7F18, symBinAddr: 0x10000BD8C, symSize: 0x30 }
  - { offsetInCU: 0x21BD6, offset: 0x21BD6, size: 0x8, addend: 0x0, symName: __ZNSt8__detail21_Hashtable_ebo_helperILi0ESaINS_10_Hash_nodeISt4pairIKNSt7__cxx1112basic_stringIcSt11char_traitsIcESaIcEEES8_ELb1EEEELb1EED2Ev, symObjAddr: 0x7ECC, symBinAddr: 0x10000BD40, symSize: 0x2C }
  - { offsetInCU: 0x21BDE, offset: 0x21BDE, size: 0x8, addend: 0x0, symName: __ZNSt8__detail16_Hashtable_allocISaINS_10_Hash_nodeISt4pairIKNSt7__cxx1112basic_stringIcSt11char_traitsIcESaIcEEES8_ELb1EEEEED2Ev, symObjAddr: 0x7EF8, symBinAddr: 0x10000BD6C, symSize: 0x20 }
  - { offsetInCU: 0x21D48, offset: 0x21D48, size: 0x8, addend: 0x0, symName: __ZNSt10_HashtableINSt7__cxx1112basic_stringIcSt11char_traitsIcESaIcEEESt4pairIKS5_S5_ESaIS8_ENSt8__detail10_Select1stESt8equal_toIS5_ESt4hashIS5_ENSA_18_Mod_range_hashingENSA_20_Default_ranged_hashENSA_20_Prime_rehash_policyENSA_17_Hashtable_traitsILb1ELb0ELb1EEEEC1ESt16initializer_listIS8_EmRKSF_RKSD_RKS9_, symObjAddr: 0x7E60, symBinAddr: 0x10000BCD4, symSize: 0x6C }
  - { offsetInCU: 0x21D50, offset: 0x21D50, size: 0x8, addend: 0x0, symName: __ZNSt8__detail21_Hashtable_ebo_helperILi0ESaINS_10_Hash_nodeISt4pairIKNSt7__cxx1112basic_stringIcSt11char_traitsIcESaIcEEES8_ELb1EEEELb1EED2Ev, symObjAddr: 0x7ECC, symBinAddr: 0x10000BD40, symSize: 0x2C }
  - { offsetInCU: 0x21D0C, offset: 0x21D0C, size: 0x8, addend: 0x0, symName: __ZNSt15__new_allocatorISt4pairIKNSt7__cxx1112basic_stringIcSt11char_traitsIcESaIcEEES6_EED2Ev, symObjAddr: 0x7E4C, symBinAddr: 0x10000BCC0, symSize: 0x14 }
  - { offsetInCU: 0x21D14, offset: 0x21D14, size: 0x8, addend: 0x0, symName: __ZNSt10_HashtableINSt7__cxx1112basic_stringIcSt11char_traitsIcESaIcEEESt4pairIKS5_S5_ESaIS8_ENSt8__detail10_Select1stESt8equal_toIS5_ESt4hashIS5_ENSA_18_Mod_range_hashingENSA_20_Default_ranged_hashENSA_20_Prime_rehash_policyENSA_17_Hashtable_traitsILb1ELb0ELb1EEEEC1ESt16initializer_listIS8_EmRKSF_RKSD_RKS9_, symObjAddr: 0x7E60, symBinAddr: 0x10000BCD4, symSize: 0x6C }
  - { offsetInCU: 0x21D4C, offset: 0x21D4C, size: 0x8, addend: 0x0, symName: __ZSt7forwardImEOT_RNSt16remove_referenceIS0_E4typeE, symObjAddr: 0x7E38, symBinAddr: 0x10000BCAC, symSize: 0x14 }
  - { offsetInCU: 0x21D54, offset: 0x21D54, size: 0x8, addend: 0x0, symName: __ZNSt15__new_allocatorISt4pairIKNSt7__cxx1112basic_stringIcSt11char_traitsIcESaIcEEES6_EED2Ev, symObjAddr: 0x7E4C, symBinAddr: 0x10000BCC0, symSize: 0x14 }
  - { offsetInCU: 0x21D95, offset: 0x21D95, size: 0x8, addend: 0x0, symName: __ZSt7forwardIbEOT_RNSt16remove_referenceIS0_E4typeE, symObjAddr: 0x7E24, symBinAddr: 0x10000BC98, symSize: 0x14 }
  - { offsetInCU: 0x21D9D, offset: 0x21D9D, size: 0x8, addend: 0x0, symName: __ZSt7forwardImEOT_RNSt16remove_referenceIS0_E4typeE, symObjAddr: 0x7E38, symBinAddr: 0x10000BCAC, symSize: 0x14 }
  - { offsetInCU: 0x21E36, offset: 0x21E36, size: 0x8, addend: 0x0, symName: __ZSt4moveIRNSt7__cxx1112basic_stringIcSt11char_traitsIcESaIcEEEEONSt16remove_referenceIT_E4typeEOS8_, symObjAddr: 0x7E10, symBinAddr: 0x10000BC84, symSize: 0x14 }
  - { offsetInCU: 0x21E3E, offset: 0x21E3E, size: 0x8, addend: 0x0, symName: __ZSt7forwardIbEOT_RNSt16remove_referenceIS0_E4typeE, symObjAddr: 0x7E24, symBinAddr: 0x10000BC98, symSize: 0x14 }
  - { offsetInCU: 0x21DFB, offset: 0x21DFB, size: 0x8, addend: 0x0, symName: __ZNSt7__cxx1112basic_stringIcSt11char_traitsIcESaIcEE12_M_constructIPKcEEvT_S8_St20forward_iterator_tag, symObjAddr: 0x7D28, symBinAddr: 0x10000BB9C, symSize: 0xE8 }
  - { offsetInCU: 0x21E03, offset: 0x21E03, size: 0x8, addend: 0x0, symName: __ZSt4moveIRNSt7__cxx1112basic_stringIcSt11char_traitsIcESaIcEEEEONSt16remove_referenceIT_E4typeEOS8_, symObjAddr: 0x7E10, symBinAddr: 0x10000BC84, symSize: 0x14 }
  - { offsetInCU: 0x21FBD, offset: 0x21FBD, size: 0x8, addend: 0x0, symName: __ZZNSt7__cxx1112basic_stringIcSt11char_traitsIcESaIcEE12_M_constructIPKcEEvT_S8_St20forward_iterator_tagEN6_GuardC1EPS4_, symObjAddr: 0x7CD0, symBinAddr: 0x10000BB44, symSize: 0x24 }
  - { offsetInCU: 0x21FC5, offset: 0x21FC5, size: 0x8, addend: 0x0, symName: __ZZNSt7__cxx1112basic_stringIcSt11char_traitsIcESaIcEE12_M_constructIPKcEEvT_S8_St20forward_iterator_tagEN6_GuardD1Ev, symObjAddr: 0x7CF4, symBinAddr: 0x10000BB68, symSize: 0x34 }
  - { offsetInCU: 0x21FF8, offset: 0x21FF8, size: 0x8, addend: 0x0, symName: __ZZNSt7__cxx1112basic_stringIcSt11char_traitsIcESaIcEE12_M_constructIPKcEEvT_S8_St20forward_iterator_tagEN6_GuardD1Ev, symObjAddr: 0x7CF4, symBinAddr: 0x10000BB68, symSize: 0x34 }
  - { offsetInCU: 0x22000, offset: 0x22000, size: 0x8, addend: 0x0, symName: __ZNSt7__cxx1112basic_stringIcSt11char_traitsIcESaIcEE12_M_constructIPKcEEvT_S8_St20forward_iterator_tag, symObjAddr: 0x7D28, symBinAddr: 0x10000BB9C, symSize: 0xE8 }
  - { offsetInCU: 0x2212C, offset: 0x2212C, size: 0x8, addend: 0x0, symName: __ZNSt7__cxx1112basic_stringIcSt11char_traitsIcESaIcEEC1IPcvEET_S7_RKS3_, symObjAddr: 0x7C50, symBinAddr: 0x10000BAC4, symSize: 0x80 }
  - { offsetInCU: 0x22134, offset: 0x22134, size: 0x8, addend: 0x0, symName: __ZZNSt7__cxx1112basic_stringIcSt11char_traitsIcESaIcEE12_M_constructIPKcEEvT_S8_St20forward_iterator_tagEN6_GuardC1EPS4_, symObjAddr: 0x7CD0, symBinAddr: 0x10000BB44, symSize: 0x24 }
  - { offsetInCU: 0x221B4, offset: 0x221B4, size: 0x8, addend: 0x0, symName: __ZNSt15__new_allocatorIcED2Ev, symObjAddr: 0x7C3C, symBinAddr: 0x10000BAB0, symSize: 0x14 }
  - { offsetInCU: 0x221BC, offset: 0x221BC, size: 0x8, addend: 0x0, symName: __ZNSt7__cxx1112basic_stringIcSt11char_traitsIcESaIcEEC1IPcvEET_S7_RKS3_, symObjAddr: 0x7C50, symBinAddr: 0x10000BAC4, symSize: 0x80 }
  - { offsetInCU: 0x221E1, offset: 0x221E1, size: 0x8, addend: 0x0, symName: __ZN9__gnu_cxx11char_traitsIcE2eqERKcS3_, symObjAddr: 0x7C0C, symBinAddr: 0x10000BA80, symSize: 0x30 }
  - { offsetInCU: 0x221E9, offset: 0x221E9, size: 0x8, addend: 0x0, symName: __ZNSt15__new_allocatorIcED2Ev, symObjAddr: 0x7C3C, symBinAddr: 0x10000BAB0, symSize: 0x14 }
  - { offsetInCU: 0x22228, offset: 0x22228, size: 0x8, addend: 0x0, symName: __ZNSt6vectorIS_IP8creatureSaIS1_EESaIS3_EE5clearEv, symObjAddr: 0x7BE0, symBinAddr: 0x10000BA54, symSize: 0x2C }
  - { offsetInCU: 0x22230, offset: 0x22230, size: 0x8, addend: 0x0, symName: __ZN9__gnu_cxx11char_traitsIcE2eqERKcS3_, symObjAddr: 0x7C0C, symBinAddr: 0x10000BA80, symSize: 0x30 }
  - { offsetInCU: 0x22259, offset: 0x22259, size: 0x8, addend: 0x0, symName: __ZNSt6vectorIS_IP8creatureSaIS1_EESaIS3_EEixEm, symObjAddr: 0x7BAC, symBinAddr: 0x10000BA20, symSize: 0x34 }
  - { offsetInCU: 0x22261, offset: 0x22261, size: 0x8, addend: 0x0, symName: __ZNSt6vectorIS_IP8creatureSaIS1_EESaIS3_EE5clearEv, symObjAddr: 0x7BE0, symBinAddr: 0x10000BA54, symSize: 0x2C }
  - { offsetInCU: 0x2229F, offset: 0x2229F, size: 0x8, addend: 0x0, symName: __ZNSt6vectorIS_IP8creatureSaIS1_EESaIS3_EE6resizeEmRKS3_, symObjAddr: 0x7AD0, symBinAddr: 0x10000B944, symSize: 0xDC }
  - { offsetInCU: 0x222A7, offset: 0x222A7, size: 0x8, addend: 0x0, symName: __ZNSt6vectorIS_IP8creatureSaIS1_EESaIS3_EEixEm, symObjAddr: 0x7BAC, symBinAddr: 0x10000BA20, symSize: 0x34 }
  - { offsetInCU: 0x22379, offset: 0x22379, size: 0x8, addend: 0x0, symName: __ZNSt6vectorIP8creatureSaIS1_EEC1EmRKS1_RKS2_, symObjAddr: 0x7A60, symBinAddr: 0x10000B8D4, symSize: 0x70 }
  - { offsetInCU: 0x22381, offset: 0x22381, size: 0x8, addend: 0x0, symName: __ZNSt6vectorIS_IP8creatureSaIS1_EESaIS3_EE6resizeEmRKS3_, symObjAddr: 0x7AD0, symBinAddr: 0x10000B944, symSize: 0xDC }
  - { offsetInCU: 0x2240B, offset: 0x2240B, size: 0x8, addend: 0x0, symName: __ZNSt6vectorIP8creatureSaIS1_EED1Ev, symObjAddr: 0x7A04, symBinAddr: 0x10000B878, symSize: 0x5C }
  - { offsetInCU: 0x22413, offset: 0x22413, size: 0x8, addend: 0x0, symName: __ZNSt6vectorIP8creatureSaIS1_EEC1EmRKS1_RKS2_, symObjAddr: 0x7A60, symBinAddr: 0x10000B8D4, symSize: 0x70 }
  - { offsetInCU: 0x224AD, offset: 0x224AD, size: 0x8, addend: 0x0, symName: __ZNSt12_Vector_baseIP8creatureSaIS1_EED2Ev, symObjAddr: 0x79B4, symBinAddr: 0x10000B828, symSize: 0x50 }
  - { offsetInCU: 0x224B5, offset: 0x224B5, size: 0x8, addend: 0x0, symName: __ZNSt6vectorIP8creatureSaIS1_EED1Ev, symObjAddr: 0x7A04, symBinAddr: 0x10000B878, symSize: 0x5C }
  - { offsetInCU: 0x22530, offset: 0x22530, size: 0x8, addend: 0x0, symName: __ZNSt12_Vector_baseIP8creatureSaIS1_EE12_Vector_implC1Ev, symObjAddr: 0x797C, symBinAddr: 0x10000B7F0, symSize: 0x38 }
  - { offsetInCU: 0x22538, offset: 0x22538, size: 0x8, addend: 0x0, symName: __ZNSt12_Vector_baseIP8creatureSaIS1_EED2Ev, symObjAddr: 0x79B4, symBinAddr: 0x10000B828, symSize: 0x50 }
  - { offsetInCU: 0x225CE, offset: 0x225CE, size: 0x8, addend: 0x0, symName: __ZNSt6vectorIS_IP8creatureSaIS1_EESaIS3_EED1Ev, symObjAddr: 0x7920, symBinAddr: 0x10000B794, symSize: 0x5C }
  - { offsetInCU: 0x225D6, offset: 0x225D6, size: 0x8, addend: 0x0, symName: __ZNSt12_Vector_baseIP8creatureSaIS1_EE12_Vector_implC1Ev, symObjAddr: 0x797C, symBinAddr: 0x10000B7F0, symSize: 0x38 }
  - { offsetInCU: 0x22677, offset: 0x22677, size: 0x8, addend: 0x0, symName: __ZNSt12_Vector_baseISt6vectorIP8creatureSaIS2_EESaIS4_EED2Ev, symObjAddr: 0x78C4, symBinAddr: 0x10000B738, symSize: 0x5C }
  - { offsetInCU: 0x2267F, offset: 0x2267F, size: 0x8, addend: 0x0, symName: __ZNSt6vectorIS_IP8creatureSaIS1_EESaIS3_EED1Ev, symObjAddr: 0x7920, symBinAddr: 0x10000B794, symSize: 0x5C }
  - { offsetInCU: 0x226FA, offset: 0x226FA, size: 0x8, addend: 0x0, symName: __ZNSt12_Vector_baseISt6vectorIP8creatureSaIS2_EESaIS4_EE12_Vector_implC1Ev, symObjAddr: 0x788C, symBinAddr: 0x10000B700, symSize: 0x38 }
  - { offsetInCU: 0x22702, offset: 0x22702, size: 0x8, addend: 0x0, symName: __ZNSt12_Vector_baseISt6vectorIP8creatureSaIS2_EESaIS4_EED2Ev, symObjAddr: 0x78C4, symBinAddr: 0x10000B738, symSize: 0x5C }
  - { offsetInCU: 0x227B0, offset: 0x227B0, size: 0x8, addend: 0x0, symName: __ZNSt11this_thread9sleep_forIxSt5ratioILl1ELl1000EEEEvRKNSt6chrono8durationIT_T0_EE, symObjAddr: 0x77C4, symBinAddr: 0x10000B638, symSize: 0xC8 }
  - { offsetInCU: 0x227B8, offset: 0x227B8, size: 0x8, addend: 0x0, symName: __ZNSt12_Vector_baseISt6vectorIP8creatureSaIS2_EESaIS4_EE12_Vector_implC1Ev, symObjAddr: 0x788C, symBinAddr: 0x10000B700, symSize: 0x38 }
  - { offsetInCU: 0x2282A, offset: 0x2282A, size: 0x8, addend: 0x0, symName: __ZNSt6chrono8durationIxSt5ratioILl1ELl1000EEEC1IivEERKT_, symObjAddr: 0x7798, symBinAddr: 0x10000B60C, symSize: 0x2C }
  - { offsetInCU: 0x22832, offset: 0x22832, size: 0x8, addend: 0x0, symName: __ZNSt11this_thread9sleep_forIxSt5ratioILl1ELl1000EEEEvRKNSt6chrono8durationIT_T0_EE, symObjAddr: 0x77C4, symBinAddr: 0x10000B638, symSize: 0xC8 }
  - { offsetInCU: 0x2283B, offset: 0x2283B, size: 0x8, addend: 0x0, symName: __ZNSt6vectorIP8creatureSaIS1_EE8pop_backEv, symObjAddr: 0x7744, symBinAddr: 0x10000B5B8, symSize: 0x54 }
  - { offsetInCU: 0x22843, offset: 0x22843, size: 0x8, addend: 0x0, symName: __ZNSt6chrono8durationIxSt5ratioILl1ELl1000EEEC1IivEERKT_, symObjAddr: 0x7798, symBinAddr: 0x10000B60C, symSize: 0x2C }
  - { offsetInCU: 0x22A8D, offset: 0x22A8D, size: 0x8, addend: 0x0, symName: __ZSt7shuffleIN9__gnu_cxx17__normal_iteratorIPP8creatureSt6vectorIS3_SaIS3_EEEESt23mersenne_twister_engineIjLm32ELm624ELm397ELm31ELj2567483615ELm11ELj4294967295ELm7ELj2636928640ELm15ELj4022730752ELm18ELj1812433253EEEvT_SB_OT0_, symObjAddr: 0x7530, symBinAddr: 0x10000B3A4, symSize: 0x214 }
  - { offsetInCU: 0x22A95, offset: 0x22A95, size: 0x8, addend: 0x0, symName: __ZNSt6vectorIP8creatureSaIS1_EE8pop_backEv, symObjAddr: 0x7744, symBinAddr: 0x10000B5B8, symSize: 0x54 }
  - { offsetInCU: 0x22A80, offset: 0x22A80, size: 0x8, addend: 0x0, symName: __ZNSt6vectorIP8creatureSaIS1_EE3endEv, symObjAddr: 0x7508, symBinAddr: 0x10000B37C, symSize: 0x28 }
  - { offsetInCU: 0x22A88, offset: 0x22A88, size: 0x8, addend: 0x0, symName: __ZSt7shuffleIN9__gnu_cxx17__normal_iteratorIPP8creatureSt6vectorIS3_SaIS3_EEEESt23mersenne_twister_engineIjLm32ELm624ELm397ELm31ELj2567483615ELm11ELj4294967295ELm7ELj2636928640ELm15ELj4022730752ELm18ELj1812433253EEEvT_SB_OT0_, symObjAddr: 0x7530, symBinAddr: 0x10000B3A4, symSize: 0x214 }
  - { offsetInCU: 0x22AB1, offset: 0x22AB1, size: 0x8, addend: 0x0, symName: __ZNSt6vectorIP8creatureSaIS1_EE5beginEv, symObjAddr: 0x74E4, symBinAddr: 0x10000B358, symSize: 0x24 }
  - { offsetInCU: 0x22AB9, offset: 0x22AB9, size: 0x8, addend: 0x0, symName: __ZNSt6vectorIP8creatureSaIS1_EE3endEv, symObjAddr: 0x7508, symBinAddr: 0x10000B37C, symSize: 0x28 }
  - { offsetInCU: 0x22AE2, offset: 0x22AE2, size: 0x8, addend: 0x0, symName: __ZNSt6vectorIP8creatureSaIS1_EE5clearEv, symObjAddr: 0x74B8, symBinAddr: 0x10000B32C, symSize: 0x2C }
  - { offsetInCU: 0x22AEA, offset: 0x22AEA, size: 0x8, addend: 0x0, symName: __ZNSt6vectorIP8creatureSaIS1_EE5beginEv, symObjAddr: 0x74E4, symBinAddr: 0x10000B358, symSize: 0x24 }
  - { offsetInCU: 0x22B13, offset: 0x22B13, size: 0x8, addend: 0x0, symName: __ZNSt6vectorIP8creatureSaIS1_EE9push_backERKS1_, symObjAddr: 0x73E4, symBinAddr: 0x10000B258, symSize: 0xD4 }
  - { offsetInCU: 0x22B1B, offset: 0x22B1B, size: 0x8, addend: 0x0, symName: __ZNSt6vectorIP8creatureSaIS1_EE5clearEv, symObjAddr: 0x74B8, symBinAddr: 0x10000B32C, symSize: 0x2C }
  - { offsetInCU: 0x22BDB, offset: 0x22BDB, size: 0x8, addend: 0x0, symName: __ZNKSt6vectorIP8creatureSaIS1_EE2atEm, symObjAddr: 0x73B4, symBinAddr: 0x10000B228, symSize: 0x30 }
  - { offsetInCU: 0x22BE3, offset: 0x22BE3, size: 0x8, addend: 0x0, symName: __ZNSt6vectorIP8creatureSaIS1_EE9push_backERKS1_, symObjAddr: 0x73E4, symBinAddr: 0x10000B258, symSize: 0xD4 }
  - { offsetInCU: 0x22C21, offset: 0x22C21, size: 0x8, addend: 0x0, symName: __ZNKSt6vectorIS_IP8creatureSaIS1_EESaIS3_EEixEm, symObjAddr: 0x7380, symBinAddr: 0x10000B1F4, symSize: 0x34 }
  - { offsetInCU: 0x22C29, offset: 0x22C29, size: 0x8, addend: 0x0, symName: __ZNKSt6vectorIP8creatureSaIS1_EE2atEm, symObjAddr: 0x73B4, symBinAddr: 0x10000B228, symSize: 0x30 }
  - { offsetInCU: 0x22C67, offset: 0x22C67, size: 0x8, addend: 0x0, symName: __ZNKSt6vectorIP8creatureSaIS1_EE5emptyEv, symObjAddr: 0x7344, symBinAddr: 0x10000B1B8, symSize: 0x3C }
  - { offsetInCU: 0x22C6F, offset: 0x22C6F, size: 0x8, addend: 0x0, symName: __ZNKSt6vectorIS_IP8creatureSaIS1_EESaIS3_EEixEm, symObjAddr: 0x7380, symBinAddr: 0x10000B1F4, symSize: 0x34 }
  - { offsetInCU: 0x22C98, offset: 0x22C98, size: 0x8, addend: 0x0, symName: __ZNKSt6vectorIS_IP8creatureSaIS1_EESaIS3_EE2atEm, symObjAddr: 0x7314, symBinAddr: 0x10000B188, symSize: 0x30 }
  - { offsetInCU: 0x22CA0, offset: 0x22CA0, size: 0x8, addend: 0x0, symName: __ZNKSt6vectorIP8creatureSaIS1_EE5emptyEv, symObjAddr: 0x7344, symBinAddr: 0x10000B1B8, symSize: 0x3C }
  - { offsetInCU: 0x22CDE, offset: 0x22CDE, size: 0x8, addend: 0x0, symName: __ZNKSt6vectorIS_IP8creatureSaIS1_EESaIS3_EE5emptyEv, symObjAddr: 0x72D8, symBinAddr: 0x10000B14C, symSize: 0x3C }
  - { offsetInCU: 0x22CE6, offset: 0x22CE6, size: 0x8, addend: 0x0, symName: __ZNKSt6vectorIS_IP8creatureSaIS1_EESaIS3_EE2atEm, symObjAddr: 0x7314, symBinAddr: 0x10000B188, symSize: 0x30 }
  - { offsetInCU: 0x22D0F, offset: 0x22D0F, size: 0x8, addend: 0x0, symName: __ZNKSt8__detail14_Node_iteratorISt4pairIKNSt7__cxx1112basic_stringIcSt11char_traitsIcESaIcEEES7_ELb0ELb1EEptEv, symObjAddr: 0x72B4, symBinAddr: 0x10000B128, symSize: 0x24 }
  - { offsetInCU: 0x22D17, offset: 0x22D17, size: 0x8, addend: 0x0, symName: __ZNKSt6vectorIS_IP8creatureSaIS1_EESaIS3_EE5emptyEv, symObjAddr: 0x72D8, symBinAddr: 0x10000B14C, symSize: 0x3C }
  - { offsetInCU: 0x22D87, offset: 0x22D87, size: 0x8, addend: 0x0, symName: __ZNSt24uniform_int_distributionIiEclISt23mersenne_twister_engineIjLm32ELm624ELm397ELm31ELj2567483615ELm11ELj4294967295ELm7ELj2636928640ELm15ELj4022730752ELm18ELj1812433253EEEEiRT_, symObjAddr: 0x7288, symBinAddr: 0x10000B0FC, symSize: 0x2C }
  - { offsetInCU: 0x22D8F, offset: 0x22D8F, size: 0x8, addend: 0x0, symName: __ZNKSt8__detail14_Node_iteratorISt4pairIKNSt7__cxx1112basic_stringIcSt11char_traitsIcESaIcEEES7_ELb0ELb1EEptEv, symObjAddr: 0x72B4, symBinAddr: 0x10000B128, symSize: 0x24 }
  - { offsetInCU: 0x22E74, offset: 0x22E74, size: 0x8, addend: 0x0, symName: __ZNSt24uniform_int_distributionIiEC1Eii, symObjAddr: 0x7258, symBinAddr: 0x10000B0CC, symSize: 0x30 }
  - { offsetInCU: 0x22E7C, offset: 0x22E7C, size: 0x8, addend: 0x0, symName: __ZNSt24uniform_int_distributionIiEclISt23mersenne_twister_engineIjLm32ELm624ELm397ELm31ELj2567483615ELm11ELj4294967295ELm7ELj2636928640ELm15ELj4022730752ELm18ELj1812433253EEEEiRT_, symObjAddr: 0x7288, symBinAddr: 0x10000B0FC, symSize: 0x2C }
  - { offsetInCU: 0x22E96, offset: 0x22E96, size: 0x8, addend: 0x0, symName: __ZNKSt13unordered_mapINSt7__cxx1112basic_stringIcSt11char_traitsIcESaIcEEES5_St4hashIS5_ESt8equal_toIS5_ESaISt4pairIKS5_S5_EEE4sizeEv, symObjAddr: 0x723C, symBinAddr: 0x10000B0B0, symSize: 0x1C }
  - { offsetInCU: 0x22E9E, offset: 0x22E9E, size: 0x8, addend: 0x0, symName: __ZNSt24uniform_int_distributionIiEC1Eii, symObjAddr: 0x7258, symBinAddr: 0x10000B0CC, symSize: 0x30 }
  - { offsetInCU: 0x22F84, offset: 0x22F84, size: 0x8, addend: 0x0, symName: __ZNSt23mersenne_twister_engineIjLm32ELm624ELm397ELm31ELj2567483615ELm11ELj4294967295ELm7ELj2636928640ELm15ELj4022730752ELm18ELj1812433253EEC1Ej, symObjAddr: 0x7214, symBinAddr: 0x10000B088, symSize: 0x28 }
  - { offsetInCU: 0x22F8C, offset: 0x22F8C, size: 0x8, addend: 0x0, symName: __ZNKSt13unordered_mapINSt7__cxx1112basic_stringIcSt11char_traitsIcESaIcEEES5_St4hashIS5_ESt8equal_toIS5_ESaISt4pairIKS5_S5_EEE4sizeEv, symObjAddr: 0x723C, symBinAddr: 0x10000B0B0, symSize: 0x1C }
  - { offsetInCU: 0x22F83, offset: 0x22F83, size: 0x8, addend: 0x0, symName: __ZNSt4pairIiiEC1IiiLb1EEEv, symObjAddr: 0x71F0, symBinAddr: 0x10000B064, symSize: 0x24 }
  - { offsetInCU: 0x22F8B, offset: 0x22F8B, size: 0x8, addend: 0x0, symName: __ZNSt23mersenne_twister_engineIjLm32ELm624ELm397ELm31ELj2567483615ELm11ELj4294967295ELm7ELj2636928640ELm15ELj4022730752ELm18ELj1812433253EEC1Ej, symObjAddr: 0x7214, symBinAddr: 0x10000B088, symSize: 0x28 }
  - { offsetInCU: 0x23053, offset: 0x23053, size: 0x8, addend: 0x0, symName: __ZSt9make_pairIbjESt4pairINSt25__strip_reference_wrapperINSt5decayIT_E4typeEE6__typeENS1_INS2_IT0_E4typeEE6__typeEEOS3_OS8_, symObjAddr: 0x71A4, symBinAddr: 0x10000B018, symSize: 0x4C }
  - { offsetInCU: 0x2305B, offset: 0x2305B, size: 0x8, addend: 0x0, symName: __ZNSt4pairIiiEC1IiiLb1EEEv, symObjAddr: 0x71F0, symBinAddr: 0x10000B064, symSize: 0x24 }
  - { offsetInCU: 0x230D9, offset: 0x230D9, size: 0x8, addend: 0x0, symName: __ZSt4swapIP8creatureENSt9enable_ifIXsrSt6__and_IJSt6__not_ISt15__is_tuple_likeIT_EESt21is_move_constructibleIS6_ESt18is_move_assignableIS6_EEE5valueEvE4typeERS6_SG_, symObjAddr: 0x7150, symBinAddr: 0x10000AFC4, symSize: 0x54 }
  - { offsetInCU: 0x230E1, offset: 0x230E1, size: 0x8, addend: 0x0, symName: __ZSt9make_pairIbjESt4pairINSt25__strip_reference_wrapperINSt5decayIT_E4typeEE6__typeENS1_INS2_IT0_E4typeEE6__typeEEOS3_OS8_, symObjAddr: 0x71A4, symBinAddr: 0x10000B018, symSize: 0x4C }
  - { offsetInCU: 0x2308F, offset: 0x2308F, size: 0x8, addend: 0x0, symName: __ZNSt6vectorIP8creatureSaIS1_EE2atEm, symObjAddr: 0x7120, symBinAddr: 0x10000AF94, symSize: 0x30 }
  - { offsetInCU: 0x23097, offset: 0x23097, size: 0x8, addend: 0x0, symName: __ZSt4swapIP8creatureENSt9enable_ifIXsrSt6__and_IJSt6__not_ISt15__is_tuple_likeIT_EESt21is_move_constructibleIS6_ESt18is_move_assignableIS6_EEE5valueEvE4typeERS6_SG_, symObjAddr: 0x7150, symBinAddr: 0x10000AFC4, symSize: 0x54 }
  - { offsetInCU: 0x230D5, offset: 0x230D5, size: 0x8, addend: 0x0, symName: __ZNKSt6vectorIP8creatureSaIS1_EE4sizeEv, symObjAddr: 0x70F8, symBinAddr: 0x10000AF6C, symSize: 0x28 }
  - { offsetInCU: 0x230DD, offset: 0x230DD, size: 0x8, addend: 0x0, symName: __ZNSt6vectorIP8creatureSaIS1_EE2atEm, symObjAddr: 0x7120, symBinAddr: 0x10000AF94, symSize: 0x30 }
  - { offsetInCU: 0x23106, offset: 0x23106, size: 0x8, addend: 0x0, symName: __ZNSt6vectorIS_IP8creatureSaIS1_EESaIS3_EE2atEm, symObjAddr: 0x70C8, symBinAddr: 0x10000AF3C, symSize: 0x30 }
  - { offsetInCU: 0x2310E, offset: 0x2310E, size: 0x8, addend: 0x0, symName: __ZNKSt6vectorIP8creatureSaIS1_EE4sizeEv, symObjAddr: 0x70F8, symBinAddr: 0x10000AF6C, symSize: 0x28 }
  - { offsetInCU: 0x2314C, offset: 0x2314C, size: 0x8, addend: 0x0, symName: __ZNKSt6vectorIS_IP8creatureSaIS1_EESaIS3_EE4sizeEv, symObjAddr: 0x7094, symBinAddr: 0x10000AF08, symSize: 0x34 }
  - { offsetInCU: 0x23154, offset: 0x23154, size: 0x8, addend: 0x0, symName: __ZNSt6vectorIS_IP8creatureSaIS1_EESaIS3_EE2atEm, symObjAddr: 0x70C8, symBinAddr: 0x10000AF3C, symSize: 0x30 }
  - { offsetInCU: 0x231A4, offset: 0x231A4, size: 0x8, addend: 0x0, symName: __ZSt3maxIdERKT_S2_S2_, symObjAddr: 0x7058, symBinAddr: 0x10000AECC, symSize: 0x3C }
  - { offsetInCU: 0x231AC, offset: 0x231AC, size: 0x8, addend: 0x0, symName: __ZNKSt6vectorIS_IP8creatureSaIS1_EESaIS3_EE4sizeEv, symObjAddr: 0x7094, symBinAddr: 0x10000AF08, symSize: 0x34 }
  - { offsetInCU: 0x232A3, offset: 0x232A3, size: 0x8, addend: 0x0, symName: __ZSt3powIiiEN9__gnu_cxx11__promote_2IDTplcvNS1_IT_XsrSt12__is_integerIS2_E7__valueEE6__typeELi0EcvNS1_IT0_XsrS3_IS7_E7__valueEE6__typeELi0EEXsrS3_ISB_E7__valueEE6__typeES2_S7_, symObjAddr: 0x702C, symBinAddr: 0x10000AEA0, symSize: 0x2C }
  - { offsetInCU: 0x232AB, offset: 0x232AB, size: 0x8, addend: 0x0, symName: __ZSt3maxIdERKT_S2_S2_, symObjAddr: 0x7058, symBinAddr: 0x10000AECC, symSize: 0x3C }
  - { offsetInCU: 0x23307, offset: 0x23307, size: 0x8, addend: 0x0, symName: __ZSt4swapIiENSt9enable_ifIXsrSt6__and_IJSt6__not_ISt15__is_tuple_likeIT_EESt21is_move_constructibleIS4_ESt18is_move_assignableIS4_EEE5valueEvE4typeERS4_SE_, symObjAddr: 0x6FD8, symBinAddr: 0x10000AE4C, symSize: 0x54 }
  - { offsetInCU: 0x2330F, offset: 0x2330F, size: 0x8, addend: 0x0, symName: __ZSt3powIiiEN9__gnu_cxx11__promote_2IDTplcvNS1_IT_XsrSt12__is_integerIS2_E7__valueEE6__typeELi0EcvNS1_IT0_XsrS3_IS7_E7__valueEE6__typeELi0EEXsrS3_ISB_E7__valueEE6__typeES2_S7_, symObjAddr: 0x702C, symBinAddr: 0x10000AEA0, symSize: 0x2C }
  - { offsetInCU: 0x233E6, offset: 0x233E6, size: 0x8, addend: 0x0, symName: __ZNSt13unordered_mapINSt7__cxx1112basic_stringIcSt11char_traitsIcESaIcEEES5_St4hashIS5_ESt8equal_toIS5_ESaISt4pairIKS5_S5_EEEC1ESt16initializer_listISC_EmRKS7_RKS9_RKSD_, symObjAddr: 0x6F90, symBinAddr: 0x10000AE04, symSize: 0x48 }
  - { offsetInCU: 0x233EE, offset: 0x233EE, size: 0x8, addend: 0x0, symName: __ZSt4swapIiENSt9enable_ifIXsrSt6__and_IJSt6__not_ISt15__is_tuple_likeIT_EESt21is_move_constructibleIS4_ESt18is_move_assignableIS4_EEE5valueEvE4typeERS4_SE_, symObjAddr: 0x6FD8, symBinAddr: 0x10000AE4C, symSize: 0x54 }
  - { offsetInCU: 0x2344C, offset: 0x2344C, size: 0x8, addend: 0x0, symName: __ZSt7forwardIRA13_KcEOT_RNSt16remove_referenceIS3_E4typeE, symObjAddr: 0x6F7C, symBinAddr: 0x10000ADF0, symSize: 0x14 }
  - { offsetInCU: 0x23454, offset: 0x23454, size: 0x8, addend: 0x0, symName: __ZNSt13unordered_mapINSt7__cxx1112basic_stringIcSt11char_traitsIcESaIcEEES5_St4hashIS5_ESt8equal_toIS5_ESaISt4pairIKS5_S5_EEEC1ESt16initializer_listISC_EmRKS7_RKS9_RKSD_, symObjAddr: 0x6F90, symBinAddr: 0x10000AE04, symSize: 0x48 }
  - { offsetInCU: 0x234AC, offset: 0x234AC, size: 0x8, addend: 0x0, symName: __ZSt7forwardIRA10_KcEOT_RNSt16remove_referenceIS3_E4typeE, symObjAddr: 0x6F68, symBinAddr: 0x10000ADDC, symSize: 0x14 }
  - { offsetInCU: 0x234B4, offset: 0x234B4, size: 0x8, addend: 0x0, symName: __ZSt7forwardIRA13_KcEOT_RNSt16remove_referenceIS3_E4typeE, symObjAddr: 0x6F7C, symBinAddr: 0x10000ADF0, symSize: 0x14 }
  - { offsetInCU: 0x2350C, offset: 0x2350C, size: 0x8, addend: 0x0, symName: __ZSt7forwardIRA12_KcEOT_RNSt16remove_referenceIS3_E4typeE, symObjAddr: 0x6F54, symBinAddr: 0x10000ADC8, symSize: 0x14 }
  - { offsetInCU: 0x23514, offset: 0x23514, size: 0x8, addend: 0x0, symName: __ZSt7forwardIRA10_KcEOT_RNSt16remove_referenceIS3_E4typeE, symObjAddr: 0x6F68, symBinAddr: 0x10000ADDC, symSize: 0x14 }
  - { offsetInCU: 0x2356C, offset: 0x2356C, size: 0x8, addend: 0x0, symName: __ZSt7forwardIRA11_KcEOT_RNSt16remove_referenceIS3_E4typeE, symObjAddr: 0x6F40, symBinAddr: 0x10000ADB4, symSize: 0x14 }
  - { offsetInCU: 0x23574, offset: 0x23574, size: 0x8, addend: 0x0, symName: __ZSt7forwardIRA12_KcEOT_RNSt16remove_referenceIS3_E4typeE, symObjAddr: 0x6F54, symBinAddr: 0x10000ADC8, symSize: 0x14 }
  - { offsetInCU: 0x235CA, offset: 0x235CA, size: 0x8, addend: 0x0, symName: __ZSt7forwardIRA9_KcEOT_RNSt16remove_referenceIS3_E4typeE, symObjAddr: 0x6F2C, symBinAddr: 0x10000ADA0, symSize: 0x14 }
  - { offsetInCU: 0x235D2, offset: 0x235D2, size: 0x8, addend: 0x0, symName: __ZSt7forwardIRA11_KcEOT_RNSt16remove_referenceIS3_E4typeE, symObjAddr: 0x6F40, symBinAddr: 0x10000ADB4, symSize: 0x14 }
  - { offsetInCU: 0x2362A, offset: 0x2362A, size: 0x8, addend: 0x0, symName: __ZSt7forwardIRA8_KcEOT_RNSt16remove_referenceIS3_E4typeE, symObjAddr: 0x6F18, symBinAddr: 0x10000AD8C, symSize: 0x14 }
  - { offsetInCU: 0x23632, offset: 0x23632, size: 0x8, addend: 0x0, symName: __ZSt7forwardIRA9_KcEOT_RNSt16remove_referenceIS3_E4typeE, symObjAddr: 0x6F2C, symBinAddr: 0x10000ADA0, symSize: 0x14 }
  - { offsetInCU: 0x2368A, offset: 0x2368A, size: 0x8, addend: 0x0, symName: __ZSt7forwardIRA5_KcEOT_RNSt16remove_referenceIS3_E4typeE, symObjAddr: 0x6F04, symBinAddr: 0x10000AD78, symSize: 0x14 }
  - { offsetInCU: 0x23692, offset: 0x23692, size: 0x8, addend: 0x0, symName: __ZSt7forwardIRA8_KcEOT_RNSt16remove_referenceIS3_E4typeE, symObjAddr: 0x6F18, symBinAddr: 0x10000AD8C, symSize: 0x14 }
  - { offsetInCU: 0x236EA, offset: 0x236EA, size: 0x8, addend: 0x0, symName: __ZSt7forwardIRA7_KcEOT_RNSt16remove_referenceIS3_E4typeE, symObjAddr: 0x6EF0, symBinAddr: 0x10000AD64, symSize: 0x14 }
  - { offsetInCU: 0x236F2, offset: 0x236F2, size: 0x8, addend: 0x0, symName: __ZSt7forwardIRA5_KcEOT_RNSt16remove_referenceIS3_E4typeE, symObjAddr: 0x6F04, symBinAddr: 0x10000AD78, symSize: 0x14 }
  - { offsetInCU: 0x2374A, offset: 0x2374A, size: 0x8, addend: 0x0, symName: __ZSt7forwardIRA6_KcEOT_RNSt16remove_referenceIS3_E4typeE, symObjAddr: 0x6EDC, symBinAddr: 0x10000AD50, symSize: 0x14 }
  - { offsetInCU: 0x23752, offset: 0x23752, size: 0x8, addend: 0x0, symName: __ZSt7forwardIRA7_KcEOT_RNSt16remove_referenceIS3_E4typeE, symObjAddr: 0x6EF0, symBinAddr: 0x10000AD64, symSize: 0x14 }
  - { offsetInCU: 0x237AA, offset: 0x237AA, size: 0x8, addend: 0x0, symName: __ZSt7forwardIRA4_KcEOT_RNSt16remove_referenceIS3_E4typeE, symObjAddr: 0x6EC8, symBinAddr: 0x10000AD3C, symSize: 0x14 }
  - { offsetInCU: 0x237B2, offset: 0x237B2, size: 0x8, addend: 0x0, symName: __ZSt7forwardIRA6_KcEOT_RNSt16remove_referenceIS3_E4typeE, symObjAddr: 0x6EDC, symBinAddr: 0x10000AD50, symSize: 0x14 }
  - { offsetInCU: 0x237B2, offset: 0x237B2, size: 0x8, addend: 0x0, symName: __ZNKSt6chrono8durationIxSt5ratioILl1ELl1EEE5countEv, symObjAddr: 0x6EB0, symBinAddr: 0x10000AD24, symSize: 0x18 }
  - { offsetInCU: 0x237BA, offset: 0x237BA, size: 0x8, addend: 0x0, symName: __ZSt7forwardIRA4_KcEOT_RNSt16remove_referenceIS3_E4typeE, symObjAddr: 0x6EC8, symBinAddr: 0x10000AD3C, symSize: 0x14 }
  - { offsetInCU: 0x23815, offset: 0x23815, size: 0x8, addend: 0x0, symName: __ZSt3maxImERKT_S2_S2_, symObjAddr: 0x6E78, symBinAddr: 0x10000ACEC, symSize: 0x38 }
  - { offsetInCU: 0x2381D, offset: 0x2381D, size: 0x8, addend: 0x0, symName: __ZNKSt6chrono8durationIxSt5ratioILl1ELl1EEE5countEv, symObjAddr: 0x6EB0, symBinAddr: 0x10000AD24, symSize: 0x18 }
  - { offsetInCU: 0x238E0, offset: 0x238E0, size: 0x8, addend: 0x0, symName: __ZNSt7__cxx1112basic_stringIcSt11char_traitsIcESaIcEEC1IS3_EEPKcRKS3_, symObjAddr: 0x6DDC, symBinAddr: 0x10000AC50, symSize: 0x9C }
  - { offsetInCU: 0x238E8, offset: 0x238E8, size: 0x8, addend: 0x0, symName: __ZSt3maxImERKT_S2_S2_, symObjAddr: 0x6E78, symBinAddr: 0x10000ACEC, symSize: 0x38 }
  - { offsetInCU: 0x239B3, offset: 0x239B3, size: 0x8, addend: 0x0, symName: __ZStplIcSt11char_traitsIcESaIcEENSt7__cxx1112basic_stringIT_T0_T1_EEPKS5_OS8_, symObjAddr: 0x6D94, symBinAddr: 0x10000AC08, symSize: 0x48 }
  - { offsetInCU: 0x239BB, offset: 0x239BB, size: 0x8, addend: 0x0, symName: __ZNSt7__cxx1112basic_stringIcSt11char_traitsIcESaIcEEC1IS3_EEPKcRKS3_, symObjAddr: 0x6DDC, symBinAddr: 0x10000AC50, symSize: 0x9C }
  - { offsetInCU: 0x23A42, offset: 0x23A42, size: 0x8, addend: 0x0, symName: __ZN9__gnu_cxx12__to_xstringINSt7__cxx1112basic_stringIcSt11char_traitsIcESaIcEEEcEET_PFiPT0_mPKS8_PcEmSB_z, symObjAddr: 0x6CB8, symBinAddr: 0x10000AB2C, symSize: 0xDC }
  - { offsetInCU: 0x23A4A, offset: 0x23A4A, size: 0x8, addend: 0x0, symName: __ZStplIcSt11char_traitsIcESaIcEENSt7__cxx1112basic_stringIT_T0_T1_EEPKS5_OS8_, symObjAddr: 0x6D94, symBinAddr: 0x10000AC08, symSize: 0x48 }
  - { offsetInCU: 0x23B78, offset: 0x23B78, size: 0x8, addend: 0x0, symName: __ZNSt8__detail18__to_chars_10_implImEEvPcjT_, symObjAddr: 0x6B1C, symBinAddr: 0x10000A990, symSize: 0x19C }
  - { offsetInCU: 0x23B80, offset: 0x23B80, size: 0x8, addend: 0x0, symName: __ZN9__gnu_cxx12__to_xstringINSt7__cxx1112basic_stringIcSt11char_traitsIcESaIcEEEcEET_PFiPT0_mPKS8_PcEmSB_z, symObjAddr: 0x6CB8, symBinAddr: 0x10000AB2C, symSize: 0xDC }
  - { offsetInCU: 0x23C68, offset: 0x23C68, size: 0x8, addend: 0x0, symName: __ZNSt8__detail14__to_chars_lenImEEjT_i, symObjAddr: 0x6A40, symBinAddr: 0x10000A8B4, symSize: 0xDC }
  - { offsetInCU: 0x23C70, offset: 0x23C70, size: 0x8, addend: 0x0, symName: __ZNSt8__detail18__to_chars_10_implImEEvPcjT_, symObjAddr: 0x6B1C, symBinAddr: 0x10000A990, symSize: 0x19C }
  - { offsetInCU: 0x23D15, offset: 0x23D15, size: 0x8, addend: 0x0, symName: __ZNSt8__detail18__to_chars_10_implIjEEvPcjT_, symObjAddr: 0x68BC, symBinAddr: 0x10000A730, symSize: 0x184 }
  - { offsetInCU: 0x23D1D, offset: 0x23D1D, size: 0x8, addend: 0x0, symName: __ZNSt8__detail14__to_chars_lenImEEjT_i, symObjAddr: 0x6A40, symBinAddr: 0x10000A8B4, symSize: 0xDC }
  - { offsetInCU: 0x23E3F, offset: 0x23E3F, size: 0x8, addend: 0x0, symName: __ZNSt7__cxx1112basic_stringIcSt11char_traitsIcESaIcEEC1IS3_EEmcRKS3_, symObjAddr: 0x6850, symBinAddr: 0x10000A6C4, symSize: 0x6C }
  - { offsetInCU: 0x23E47, offset: 0x23E47, size: 0x8, addend: 0x0, symName: __ZNSt8__detail18__to_chars_10_implIjEEvPcjT_, symObjAddr: 0x68BC, symBinAddr: 0x10000A730, symSize: 0x184 }
  - { offsetInCU: 0x23EC6, offset: 0x23EC6, size: 0x8, addend: 0x0, symName: __ZNSt7__cxx1112basic_stringIcSt11char_traitsIcESaIcEE12_Alloc_hiderD1Ev, symObjAddr: 0x6824, symBinAddr: 0x10000A698, symSize: 0x2C }
  - { offsetInCU: 0x23ECE, offset: 0x23ECE, size: 0x8, addend: 0x0, symName: __ZNSt7__cxx1112basic_stringIcSt11char_traitsIcESaIcEEC1IS3_EEmcRKS3_, symObjAddr: 0x6850, symBinAddr: 0x10000A6C4, symSize: 0x6C }
  - { offsetInCU: 0x23F62, offset: 0x23F62, size: 0x8, addend: 0x0, symName: __ZNSt8__detail14__to_chars_lenIjEEjT_i, symObjAddr: 0x674C, symBinAddr: 0x10000A5C0, symSize: 0xD8 }
  - { offsetInCU: 0x23F6A, offset: 0x23F6A, size: 0x8, addend: 0x0, symName: __ZNSt7__cxx1112basic_stringIcSt11char_traitsIcESaIcEE12_Alloc_hiderD1Ev, symObjAddr: 0x6824, symBinAddr: 0x10000A698, symSize: 0x2C }
  - { offsetInCU: 0x23FC6, offset: 0x23FC6, size: 0x8, addend: 0x0, symName: __ZN9__gnu_cxx11char_traitsIcE6lengthEPKc, symObjAddr: 0x66F0, symBinAddr: 0x10000A564, symSize: 0x5C }
  - { offsetInCU: 0x23FCE, offset: 0x23FCE, size: 0x8, addend: 0x0, symName: __ZNSt8__detail14__to_chars_lenIjEEjT_i, symObjAddr: 0x674C, symBinAddr: 0x10000A5C0, symSize: 0xD8 }
  - { offsetInCU: 0x24016, offset: 0x24016, size: 0x8, addend: 0x0, symName: _main, symObjAddr: 0x6640, symBinAddr: 0x10000A4B4, symSize: 0xB0 }
  - { offsetInCU: 0x2401E, offset: 0x2401E, size: 0x8, addend: 0x0, symName: __ZN9__gnu_cxx11char_traitsIcE6lengthEPKc, symObjAddr: 0x66F0, symBinAddr: 0x10000A564, symSize: 0x5C }
  - { offsetInCU: 0x24121, offset: 0x24121, size: 0x8, addend: 0x0, symName: __ZN10simulationD1Ev, symObjAddr: 0x644C, symBinAddr: 0x10000A2C0, symSize: 0x1F4 }
  - { offsetInCU: 0x24129, offset: 0x24129, size: 0x8, addend: 0x0, symName: _main, symObjAddr: 0x6640, symBinAddr: 0x10000A4B4, symSize: 0xB0 }
  - { offsetInCU: 0x241B7, offset: 0x241B7, size: 0x8, addend: 0x0, symName: __ZN10simulation6screenEiii17reproductionTypes12survivalSpot, symObjAddr: 0x621C, symBinAddr: 0x10000A090, symSize: 0x230 }
  - { offsetInCU: 0x241BF, offset: 0x241BF, size: 0x8, addend: 0x0, symName: __ZN10simulationD1Ev, symObjAddr: 0x644C, symBinAddr: 0x10000A2C0, symSize: 0x1F4 }
  - { offsetInCU: 0x2431F, offset: 0x2431F, size: 0x8, addend: 0x0, symName: __ZN10simulationC1Ejjd, symObjAddr: 0x5FC8, symBinAddr: 0x100009E3C, symSize: 0x254 }
  - { offsetInCU: 0x24327, offset: 0x24327, size: 0x8, addend: 0x0, symName: __ZN10simulation6screenEiii17reproductionTypes12survivalSpot, symObjAddr: 0x621C, symBinAddr: 0x10000A090, symSize: 0x230 }
  - { offsetInCU: 0x244B0, offset: 0x244B0, size: 0x8, addend: 0x0, symName: __ZNSt6vectorIP8creatureSaIS1_EEC1Ev, symObjAddr: 0x5FA8, symBinAddr: 0x100009E1C, symSize: 0x20 }
  - { offsetInCU: 0x244B8, offset: 0x244B8, size: 0x8, addend: 0x0, symName: __ZN10simulationC1Ejjd, symObjAddr: 0x5FC8, symBinAddr: 0x100009E3C, symSize: 0x254 }
  - { offsetInCU: 0x24502, offset: 0x24502, size: 0x8, addend: 0x0, symName: __ZNSt12_Vector_baseIP8creatureSaIS1_EEC2Ev, symObjAddr: 0x5F88, symBinAddr: 0x100009DFC, symSize: 0x20 }
  - { offsetInCU: 0x2450A, offset: 0x2450A, size: 0x8, addend: 0x0, symName: __ZNSt6vectorIP8creatureSaIS1_EEC1Ev, symObjAddr: 0x5FA8, symBinAddr: 0x100009E1C, symSize: 0x20 }
  - { offsetInCU: 0x2456D, offset: 0x2456D, size: 0x8, addend: 0x0, symName: __ZNSt12_Vector_baseIP8creatureSaIS1_EE12_Vector_implD1Ev, symObjAddr: 0x5F5C, symBinAddr: 0x100009DD0, symSize: 0x2C }
  - { offsetInCU: 0x24575, offset: 0x24575, size: 0x8, addend: 0x0, symName: __ZNSt12_Vector_baseIP8creatureSaIS1_EEC2Ev, symObjAddr: 0x5F88, symBinAddr: 0x100009DFC, symSize: 0x20 }
  - { offsetInCU: 0x245D5, offset: 0x245D5, size: 0x8, addend: 0x0, symName: __ZNSt6vectorIS_IP8creatureSaIS1_EESaIS3_EEC1Ev, symObjAddr: 0x5F3C, symBinAddr: 0x100009DB0, symSize: 0x20 }
  - { offsetInCU: 0x245DD, offset: 0x245DD, size: 0x8, addend: 0x0, symName: __ZNSt12_Vector_baseIP8creatureSaIS1_EE12_Vector_implD1Ev, symObjAddr: 0x5F5C, symBinAddr: 0x100009DD0, symSize: 0x2C }
  - { offsetInCU: 0x2462E, offset: 0x2462E, size: 0x8, addend: 0x0, symName: __ZNSt12_Vector_baseISt6vectorIP8creatureSaIS2_EESaIS4_EEC2Ev, symObjAddr: 0x5F1C, symBinAddr: 0x100009D90, symSize: 0x20 }
  - { offsetInCU: 0x24636, offset: 0x24636, size: 0x8, addend: 0x0, symName: __ZNSt6vectorIS_IP8creatureSaIS1_EESaIS3_EEC1Ev, symObjAddr: 0x5F3C, symBinAddr: 0x100009DB0, symSize: 0x20 }
  - { offsetInCU: 0x24699, offset: 0x24699, size: 0x8, addend: 0x0, symName: __ZNSt12_Vector_baseISt6vectorIP8creatureSaIS2_EESaIS4_EE12_Vector_implD1Ev, symObjAddr: 0x5EF0, symBinAddr: 0x100009D64, symSize: 0x2C }
  - { offsetInCU: 0x246A1, offset: 0x246A1, size: 0x8, addend: 0x0, symName: __ZNSt12_Vector_baseISt6vectorIP8creatureSaIS2_EESaIS4_EEC2Ev, symObjAddr: 0x5F1C, symBinAddr: 0x100009D90, symSize: 0x20 }
  - { offsetInCU: 0x246A5, offset: 0x246A5, size: 0x8, addend: 0x0, symName: __ZN10simulation18simulateGenerationEii, symObjAddr: 0x5E10, symBinAddr: 0x100009C84, symSize: 0xE0 }
  - { offsetInCU: 0x246AD, offset: 0x246AD, size: 0x8, addend: 0x0, symName: __ZNSt12_Vector_baseISt6vectorIP8creatureSaIS2_EESaIS4_EE12_Vector_implD1Ev, symObjAddr: 0x5EF0, symBinAddr: 0x100009D64, symSize: 0x2C }
  - { offsetInCU: 0x24728, offset: 0x24728, size: 0x8, addend: 0x0, symName: __ZN10simulation17chooseReproducersE12survivalSpot, symObjAddr: 0x510C, symBinAddr: 0x100008F80, symSize: 0xD04 }
  - { offsetInCU: 0x24730, offset: 0x24730, size: 0x8, addend: 0x0, symName: __ZN10simulation18simulateGenerationEii, symObjAddr: 0x5E10, symBinAddr: 0x100009C84, symSize: 0xE0 }
  - { offsetInCU: 0x24ABD, offset: 0x24ABD, size: 0x8, addend: 0x0, symName: __ZN10simulation16reproduceElitistEv, symObjAddr: 0x4E18, symBinAddr: 0x100008C8C, symSize: 0x2F4 }
  - { offsetInCU: 0x24AC5, offset: 0x24AC5, size: 0x8, addend: 0x0, symName: __ZN10simulation17chooseReproducersE12survivalSpot, symObjAddr: 0x510C, symBinAddr: 0x100008F80, symSize: 0xD04 }
  - { offsetInCU: 0x24BBB, offset: 0x24BBB, size: 0x8, addend: 0x0, symName: __ZN10simulation17reproduceConstPopEv, symObjAddr: 0x4A44, symBinAddr: 0x1000088B8, symSize: 0x3D4 }
  - { offsetInCU: 0x24BC3, offset: 0x24BC3, size: 0x8, addend: 0x0, symName: __ZN10simulation16reproduceElitistEv, symObjAddr: 0x4E18, symBinAddr: 0x100008C8C, symSize: 0x2F4 }
  - { offsetInCU: 0x24D10, offset: 0x24D10, size: 0x8, addend: 0x0, symName: __ZN10simulation20reproduceSurvivalistEv, symObjAddr: 0x4720, symBinAddr: 0x100008594, symSize: 0x324 }
  - { offsetInCU: 0x24D18, offset: 0x24D18, size: 0x8, addend: 0x0, symName: __ZN10simulation17reproduceConstPopEv, symObjAddr: 0x4A44, symBinAddr: 0x1000088B8, symSize: 0x3D4 }
  - { offsetInCU: 0x24E13, offset: 0x24E13, size: 0x8, addend: 0x0, symName: __ZN10simulation20setMonitoredCreatureEP8creature, symObjAddr: 0x4684, symBinAddr: 0x1000084F8, symSize: 0x9C }
  - { offsetInCU: 0x24E1B, offset: 0x24E1B, size: 0x8, addend: 0x0, symName: __ZN10simulation20reproduceSurvivalistEv, symObjAddr: 0x4720, symBinAddr: 0x100008594, symSize: 0x324 }
  - { offsetInCU: 0x24E58, offset: 0x24E58, size: 0x8, addend: 0x0, symName: __ZN10simulation19clearCreaturesTableEv, symObjAddr: 0x45B4, symBinAddr: 0x100008428, symSize: 0xD0 }
  - { offsetInCU: 0x24E60, offset: 0x24E60, size: 0x8, addend: 0x0, symName: __ZN10simulation20setMonitoredCreatureEP8creature, symObjAddr: 0x4684, symBinAddr: 0x1000084F8, symSize: 0x9C }
  - { offsetInCU: 0x24ED5, offset: 0x24ED5, size: 0x8, addend: 0x0, symName: __ZN10simulation6updateEv, symObjAddr: 0x4534, symBinAddr: 0x1000083A8, symSize: 0x80 }
  - { offsetInCU: 0x24EDD, offset: 0x24EDD, size: 0x8, addend: 0x0, symName: __ZN10simulation19clearCreaturesTableEv, symObjAddr: 0x45B4, symBinAddr: 0x100008428, symSize: 0xD0 }
  - { offsetInCU: 0x24F2C, offset: 0x24F2C, size: 0x8, addend: 0x0, symName: __ZN10simulation11putCreatureEP8creature, symObjAddr: 0x4394, symBinAddr: 0x100008208, symSize: 0x1A0 }
  - { offsetInCU: 0x24F34, offset: 0x24F34, size: 0x8, addend: 0x0, symName: __ZN10simulation6updateEv, symObjAddr: 0x4534, symBinAddr: 0x1000083A8, symSize: 0x80 }
  - { offsetInCU: 0x24F97, offset: 0x24F97, size: 0x8, addend: 0x0, symName: __ZN10simulation17putRandomCreatureEv, symObjAddr: 0x41B0, symBinAddr: 0x100008024, symSize: 0x1E4 }
  - { offsetInCU: 0x24F9F, offset: 0x24F9F, size: 0x8, addend: 0x0, symName: __ZN10simulation11putCreatureEP8creature, symObjAddr: 0x4394, symBinAddr: 0x100008208, symSize: 0x1A0 }
  - { offsetInCU: 0x25001, offset: 0x25001, size: 0x8, addend: 0x0, symName: __ZNK10simulation11clearScreenEv, symObjAddr: 0x4184, symBinAddr: 0x100007FF8, symSize: 0x2C }
  - { offsetInCU: 0x25009, offset: 0x25009, size: 0x8, addend: 0x0, symName: __ZN10simulation17putRandomCreatureEv, symObjAddr: 0x41B0, symBinAddr: 0x100008024, symSize: 0x1E4 }
  - { offsetInCU: 0x25032, offset: 0x25032, size: 0x8, addend: 0x0, symName: __ZN10simulation9printInfoEv, symObjAddr: 0x3C1C, symBinAddr: 0x100007A90, symSize: 0x568 }
  - { offsetInCU: 0x2503A, offset: 0x2503A, size: 0x8, addend: 0x0, symName: __ZNK10simulation11clearScreenEv, symObjAddr: 0x4184, symBinAddr: 0x100007FF8, symSize: 0x2C }
  - { offsetInCU: 0x25064, offset: 0x25064, size: 0x8, addend: 0x0, symName: __ZNK10simulation5printEv, symObjAddr: 0x3814, symBinAddr: 0x100007688, symSize: 0x408 }
  - { offsetInCU: 0x2506C, offset: 0x2506C, size: 0x8, addend: 0x0, symName: __ZN10simulation9printInfoEv, symObjAddr: 0x3C1C, symBinAddr: 0x100007A90, symSize: 0x568 }
  - { offsetInCU: 0x25256, offset: 0x25256, size: 0x8, addend: 0x0, symName: __ZN8creatureD1Ev, symObjAddr: 0x37E8, symBinAddr: 0x10000765C, symSize: 0x2C }
  - { offsetInCU: 0x2525E, offset: 0x2525E, size: 0x8, addend: 0x0, symName: __ZNK10simulation5printEv, symObjAddr: 0x3814, symBinAddr: 0x100007688, symSize: 0x408 }
  - { offsetInCU: 0x25275, offset: 0x25275, size: 0x8, addend: 0x0, symName: __ZN8creature6actionEv, symObjAddr: 0x37C8, symBinAddr: 0x10000763C, symSize: 0x20 }
  - { offsetInCU: 0x2527D, offset: 0x2527D, size: 0x8, addend: 0x0, symName: __ZN8creatureD1Ev, symObjAddr: 0x37E8, symBinAddr: 0x10000765C, symSize: 0x2C }
  - { offsetInCU: 0x252A6, offset: 0x252A6, size: 0x8, addend: 0x0, symName: __ZN8creature13reproduceWithEPS_, symObjAddr: 0x367C, symBinAddr: 0x1000074F0, symSize: 0x14C }
  - { offsetInCU: 0x252AE, offset: 0x252AE, size: 0x8, addend: 0x0, symName: __ZN8creature6actionEv, symObjAddr: 0x37C8, symBinAddr: 0x10000763C, symSize: 0x20 }
  - { offsetInCU: 0x25351, offset: 0x25351, size: 0x8, addend: 0x0, symName: __ZN8creature15initCoordinatesEii, symObjAddr: 0x3624, symBinAddr: 0x100007498, symSize: 0x58 }
  - { offsetInCU: 0x25359, offset: 0x25359, size: 0x8, addend: 0x0, symName: __ZN8creature13reproduceWithEPS_, symObjAddr: 0x367C, symBinAddr: 0x1000074F0, symSize: 0x14C }
  - { offsetInCU: 0x253AC, offset: 0x253AC, size: 0x8, addend: 0x0, symName: __ZN8creature11setCreatureEv, symObjAddr: 0x3600, symBinAddr: 0x100007474, symSize: 0x24 }
  - { offsetInCU: 0x253B4, offset: 0x253B4, size: 0x8, addend: 0x0, symName: __ZN8creature15initCoordinatesEii, symObjAddr: 0x3624, symBinAddr: 0x100007498, symSize: 0x58 }
  - { offsetInCU: 0x25442, offset: 0x25442, size: 0x8, addend: 0x0, symName: __ZN8creatureC1Ev, symObjAddr: 0x3484, symBinAddr: 0x1000072F8, symSize: 0x17C }
  - { offsetInCU: 0x2544A, offset: 0x2544A, size: 0x8, addend: 0x0, symName: __ZN8creature11setCreatureEv, symObjAddr: 0x3600, symBinAddr: 0x100007474, symSize: 0x24 }
  - { offsetInCU: 0x255EB, offset: 0x255EB, size: 0x8, addend: 0x0, symName: __ZN2NND1Ev, symObjAddr: 0x3390, symBinAddr: 0x100007204, symSize: 0xF4 }
  - { offsetInCU: 0x255F3, offset: 0x255F3, size: 0x8, addend: 0x0, symName: __ZN8creatureC1Ev, symObjAddr: 0x3484, symBinAddr: 0x1000072F8, symSize: 0x17C }
  - { offsetInCU: 0x2568A, offset: 0x2568A, size: 0x8, addend: 0x0, symName: __ZN2NN6actionEv, symObjAddr: 0x3360, symBinAddr: 0x1000071D4, symSize: 0x30 }
  - { offsetInCU: 0x25692, offset: 0x25692, size: 0x8, addend: 0x0, symName: __ZN2NND1Ev, symObjAddr: 0x3390, symBinAddr: 0x100007204, symSize: 0xF4 }
  - { offsetInCU: 0x256BB, offset: 0x256BB, size: 0x8, addend: 0x0, symName: __ZN2NN4fireEv, symObjAddr: 0x32D8, symBinAddr: 0x10000714C, symSize: 0x88 }
  - { offsetInCU: 0x256C3, offset: 0x256C3, size: 0x8, addend: 0x0, symName: __ZN2NN6actionEv, symObjAddr: 0x3360, symBinAddr: 0x1000071D4, symSize: 0x30 }
  - { offsetInCU: 0x2573C, offset: 0x2573C, size: 0x8, addend: 0x0, symName: __ZN2NN12clearNeuronsEv, symObjAddr: 0x3250, symBinAddr: 0x1000070C4, symSize: 0x88 }
  - { offsetInCU: 0x25744, offset: 0x25744, size: 0x8, addend: 0x0, symName: __ZN2NN4fireEv, symObjAddr: 0x32D8, symBinAddr: 0x10000714C, symSize: 0x88 }
  - { offsetInCU: 0x257BD, offset: 0x257BD, size: 0x8, addend: 0x0, symName: __ZN2NN26decodeGenomesAndSendInputsEv, symObjAddr: 0x30EC, symBinAddr: 0x100006F60, symSize: 0x164 }
  - { offsetInCU: 0x257C5, offset: 0x257C5, size: 0x8, addend: 0x0, symName: __ZN2NN12clearNeuronsEv, symObjAddr: 0x3250, symBinAddr: 0x1000070C4, symSize: 0x88 }
  - { offsetInCU: 0x258D7, offset: 0x258D7, size: 0x8, addend: 0x0, symName: __ZNK2NN9getNeuronESt4pairIbjE, symObjAddr: 0x3030, symBinAddr: 0x100006EA4, symSize: 0xBC }
  - { offsetInCU: 0x258DF, offset: 0x258DF, size: 0x8, addend: 0x0, symName: __ZN2NN26decodeGenomesAndSendInputsEv, symObjAddr: 0x30EC, symBinAddr: 0x100006F60, symSize: 0x164 }
  - { offsetInCU: 0x2597B, offset: 0x2597B, size: 0x8, addend: 0x0, symName: __ZN2NN20createNonInnerNeuronE11NeuronTypes, symObjAddr: 0x2C38, symBinAddr: 0x100006AAC, symSize: 0x3F8 }
  - { offsetInCU: 0x25983, offset: 0x25983, size: 0x8, addend: 0x0, symName: __ZNK2NN9getNeuronESt4pairIbjE, symObjAddr: 0x3030, symBinAddr: 0x100006EA4, symSize: 0xBC }
  - { offsetInCU: 0x259EC, offset: 0x259EC, size: 0x8, addend: 0x0, symName: __ZN4killC1Ev, symObjAddr: 0x2C04, symBinAddr: 0x100006A78, symSize: 0x34 }
  - { offsetInCU: 0x259F4, offset: 0x259F4, size: 0x8, addend: 0x0, symName: __ZN2NN20createNonInnerNeuronE11NeuronTypes, symObjAddr: 0x2C38, symBinAddr: 0x100006AAC, symSize: 0x3F8 }
  - { offsetInCU: 0x25A3C, offset: 0x25A3C, size: 0x8, addend: 0x0, symName: __ZN6goDownC1Ev, symObjAddr: 0x2BD0, symBinAddr: 0x100006A44, symSize: 0x34 }
  - { offsetInCU: 0x25A44, offset: 0x25A44, size: 0x8, addend: 0x0, symName: __ZN4killC1Ev, symObjAddr: 0x2C04, symBinAddr: 0x100006A78, symSize: 0x34 }
  - { offsetInCU: 0x25A88, offset: 0x25A88, size: 0x8, addend: 0x0, symName: __ZN4goUpC1Ev, symObjAddr: 0x2B9C, symBinAddr: 0x100006A10, symSize: 0x34 }
  - { offsetInCU: 0x25A90, offset: 0x25A90, size: 0x8, addend: 0x0, symName: __ZN6goDownC1Ev, symObjAddr: 0x2BD0, symBinAddr: 0x100006A44, symSize: 0x34 }
  - { offsetInCU: 0x25AD9, offset: 0x25AD9, size: 0x8, addend: 0x0, symName: __ZN7goRightC1Ev, symObjAddr: 0x2B68, symBinAddr: 0x1000069DC, symSize: 0x34 }
  - { offsetInCU: 0x25AE1, offset: 0x25AE1, size: 0x8, addend: 0x0, symName: __ZN4goUpC1Ev, symObjAddr: 0x2B9C, symBinAddr: 0x100006A10, symSize: 0x34 }
  - { offsetInCU: 0x25B26, offset: 0x25B26, size: 0x8, addend: 0x0, symName: __ZN6goLeftC1Ev, symObjAddr: 0x2B34, symBinAddr: 0x1000069A8, symSize: 0x34 }
  - { offsetInCU: 0x25B2E, offset: 0x25B2E, size: 0x8, addend: 0x0, symName: __ZN7goRightC1Ev, symObjAddr: 0x2B68, symBinAddr: 0x1000069DC, symSize: 0x34 }
  - { offsetInCU: 0x25B7F, offset: 0x25B7F, size: 0x8, addend: 0x0, symName: __ZN16verticalLocationC1Ev, symObjAddr: 0x2B00, symBinAddr: 0x100006974, symSize: 0x34 }
  - { offsetInCU: 0x25B87, offset: 0x25B87, size: 0x8, addend: 0x0, symName: __ZN6goLeftC1Ev, symObjAddr: 0x2B34, symBinAddr: 0x1000069A8, symSize: 0x34 }
  - { offsetInCU: 0x25BCC, offset: 0x25BCC, size: 0x8, addend: 0x0, symName: __ZN15lateralLocationC1Ev, symObjAddr: 0x2ACC, symBinAddr: 0x100006940, symSize: 0x34 }
  - { offsetInCU: 0x25BD4, offset: 0x25BD4, size: 0x8, addend: 0x0, symName: __ZN16verticalLocationC1Ev, symObjAddr: 0x2B00, symBinAddr: 0x100006974, symSize: 0x34 }
  - { offsetInCU: 0x25C13, offset: 0x25C13, size: 0x8, addend: 0x0, symName: __ZN9bottomEyeC1Ev, symObjAddr: 0x2A98, symBinAddr: 0x10000690C, symSize: 0x34 }
  - { offsetInCU: 0x25C1B, offset: 0x25C1B, size: 0x8, addend: 0x0, symName: __ZN15lateralLocationC1Ev, symObjAddr: 0x2ACC, symBinAddr: 0x100006940, symSize: 0x34 }
  - { offsetInCU: 0x25C5E, offset: 0x25C5E, size: 0x8, addend: 0x0, symName: __ZN6topEyeC1Ev, symObjAddr: 0x2A64, symBinAddr: 0x1000068D8, symSize: 0x34 }
  - { offsetInCU: 0x25C66, offset: 0x25C66, size: 0x8, addend: 0x0, symName: __ZN9bottomEyeC1Ev, symObjAddr: 0x2A98, symBinAddr: 0x10000690C, symSize: 0x34 }
  - { offsetInCU: 0x25CAE, offset: 0x25CAE, size: 0x8, addend: 0x0, symName: __ZN8rightEyeC1Ev, symObjAddr: 0x2A30, symBinAddr: 0x1000068A4, symSize: 0x34 }
  - { offsetInCU: 0x25CB6, offset: 0x25CB6, size: 0x8, addend: 0x0, symName: __ZN6topEyeC1Ev, symObjAddr: 0x2A64, symBinAddr: 0x1000068D8, symSize: 0x34 }
  - { offsetInCU: 0x25CFB, offset: 0x25CFB, size: 0x8, addend: 0x0, symName: __ZN7leftEyeC1Ev, symObjAddr: 0x29FC, symBinAddr: 0x100006870, symSize: 0x34 }
  - { offsetInCU: 0x25D03, offset: 0x25D03, size: 0x8, addend: 0x0, symName: __ZN8rightEyeC1Ev, symObjAddr: 0x2A30, symBinAddr: 0x1000068A4, symSize: 0x34 }
  - { offsetInCU: 0x25D1B, offset: 0x25D1B, size: 0x8, addend: 0x0, symName: __ZN2NN6setPTRERSt4pairIiiEPb, symObjAddr: 0x2950, symBinAddr: 0x1000067C4, symSize: 0xAC }
  - { offsetInCU: 0x25D23, offset: 0x25D23, size: 0x8, addend: 0x0, symName: __ZN7leftEyeC1Ev, symObjAddr: 0x29FC, symBinAddr: 0x100006870, symSize: 0x34 }
  - { offsetInCU: 0x25DC0, offset: 0x25DC0, size: 0x8, addend: 0x0, symName: __ZN2NN11setCreatureEP8creature, symObjAddr: 0x28C0, symBinAddr: 0x100006734, symSize: 0x90 }
  - { offsetInCU: 0x25DC8, offset: 0x25DC8, size: 0x8, addend: 0x0, symName: __ZN2NN6setPTRERSt4pairIiiEPb, symObjAddr: 0x2950, symBinAddr: 0x1000067C4, symSize: 0xAC }
  - { offsetInCU: 0x25E5F, offset: 0x25E5F, size: 0x8, addend: 0x0, symName: __ZN6genomeaSERKS_, symObjAddr: 0x2898, symBinAddr: 0x10000670C, symSize: 0x28 }
  - { offsetInCU: 0x25E67, offset: 0x25E67, size: 0x8, addend: 0x0, symName: __ZN2NN11setCreatureEP8creature, symObjAddr: 0x28C0, symBinAddr: 0x100006734, symSize: 0x90 }
  - { offsetInCU: 0x25EEA, offset: 0x25EEA, size: 0x8, addend: 0x0, symName: __ZN2NNC1Ev, symObjAddr: 0x26C8, symBinAddr: 0x10000653C, symSize: 0x1D0 }
  - { offsetInCU: 0x25EF2, offset: 0x25EF2, size: 0x8, addend: 0x0, symName: __ZN6genomeaSERKS_, symObjAddr: 0x2898, symBinAddr: 0x10000670C, symSize: 0x28 }
  - { offsetInCU: 0x25FB6, offset: 0x25FB6, size: 0x8, addend: 0x0, symName: __ZN5innerC1Ev, symObjAddr: 0x2694, symBinAddr: 0x100006508, symSize: 0x34 }
  - { offsetInCU: 0x25FBE, offset: 0x25FBE, size: 0x8, addend: 0x0, symName: __ZN2NNC1Ev, symObjAddr: 0x26C8, symBinAddr: 0x10000653C, symSize: 0x1D0 }
  - { offsetInCU: 0x25FD8, offset: 0x25FD8, size: 0x8, addend: 0x0, symName: __ZN6genome8mutationEv, symObjAddr: 0x25EC, symBinAddr: 0x100006460, symSize: 0xA8 }
  - { offsetInCU: 0x25FE0, offset: 0x25FE0, size: 0x8, addend: 0x0, symName: __ZN5innerC1Ev, symObjAddr: 0x2694, symBinAddr: 0x100006508, symSize: 0x34 }
  - { offsetInCU: 0x2602F, offset: 0x2602F, size: 0x8, addend: 0x0, symName: __ZN6genome13crossoverWithERS_, symObjAddr: 0x2470, symBinAddr: 0x1000062E4, symSize: 0x17C }
  - { offsetInCU: 0x26037, offset: 0x26037, size: 0x8, addend: 0x0, symName: __ZN6genome8mutationEv, symObjAddr: 0x25EC, symBinAddr: 0x100006460, symSize: 0xA8 }
  - { offsetInCU: 0x2614A, offset: 0x2614A, size: 0x8, addend: 0x0, symName: __ZN6genomeD1Ev, symObjAddr: 0x2450, symBinAddr: 0x1000062C4, symSize: 0x20 }
  - { offsetInCU: 0x26152, offset: 0x26152, size: 0x8, addend: 0x0, symName: __ZN6genome13crossoverWithERS_, symObjAddr: 0x2470, symBinAddr: 0x1000062E4, symSize: 0x17C }
  - { offsetInCU: 0x2616B, offset: 0x2616B, size: 0x8, addend: 0x0, symName: __ZNK6genome9getWeightEv, symObjAddr: 0x242C, symBinAddr: 0x1000062A0, symSize: 0x24 }
  - { offsetInCU: 0x26173, offset: 0x26173, size: 0x8, addend: 0x0, symName: __ZN6genomeD1Ev, symObjAddr: 0x2450, symBinAddr: 0x1000062C4, symSize: 0x20 }
  - { offsetInCU: 0x2619C, offset: 0x2619C, size: 0x8, addend: 0x0, symName: __ZNK6genome14getDestinationEv, symObjAddr: 0x23DC, symBinAddr: 0x100006250, symSize: 0x50 }
  - { offsetInCU: 0x261A4, offset: 0x261A4, size: 0x8, addend: 0x0, symName: __ZNK6genome9getWeightEv, symObjAddr: 0x242C, symBinAddr: 0x1000062A0, symSize: 0x24 }
  - { offsetInCU: 0x261CD, offset: 0x261CD, size: 0x8, addend: 0x0, symName: __ZNK6genome9getSourceEv, symObjAddr: 0x238C, symBinAddr: 0x100006200, symSize: 0x50 }
  - { offsetInCU: 0x261D5, offset: 0x261D5, size: 0x8, addend: 0x0, symName: __ZNK6genome14getDestinationEv, symObjAddr: 0x23DC, symBinAddr: 0x100006250, symSize: 0x50 }
  - { offsetInCU: 0x2623C, offset: 0x2623C, size: 0x8, addend: 0x0, symName: __ZN6genomeC1Ev, symObjAddr: 0x22D8, symBinAddr: 0x10000614C, symSize: 0xB4 }
  - { offsetInCU: 0x26244, offset: 0x26244, size: 0x8, addend: 0x0, symName: __ZNK6genome9getSourceEv, symObjAddr: 0x238C, symBinAddr: 0x100006200, symSize: 0x50 }
  - { offsetInCU: 0x2629A, offset: 0x2629A, size: 0x8, addend: 0x0, symName: __ZN5inner17unconditionallyDoEv, symObjAddr: 0x22C4, symBinAddr: 0x100006138, symSize: 0x14 }
  - { offsetInCU: 0x262A2, offset: 0x262A2, size: 0x8, addend: 0x0, symName: __ZN6genomeC1Ev, symObjAddr: 0x22D8, symBinAddr: 0x10000614C, symSize: 0xB4 }
  - { offsetInCU: 0x262CB, offset: 0x262CB, size: 0x8, addend: 0x0, symName: __ZN4kill17unconditionallyDoEv, symObjAddr: 0x22B0, symBinAddr: 0x100006124, symSize: 0x14 }
  - { offsetInCU: 0x262D3, offset: 0x262D3, size: 0x8, addend: 0x0, symName: __ZN5inner17unconditionallyDoEv, symObjAddr: 0x22C4, symBinAddr: 0x100006138, symSize: 0x14 }
  - { offsetInCU: 0x262FC, offset: 0x262FC, size: 0x8, addend: 0x0, symName: __ZN6goDown17unconditionallyDoEv, symObjAddr: 0x217C, symBinAddr: 0x100005FF0, symSize: 0x134 }
  - { offsetInCU: 0x26304, offset: 0x26304, size: 0x8, addend: 0x0, symName: __ZN4kill17unconditionallyDoEv, symObjAddr: 0x22B0, symBinAddr: 0x100006124, symSize: 0x14 }
  - { offsetInCU: 0x26353, offset: 0x26353, size: 0x8, addend: 0x0, symName: __ZN4goUp17unconditionallyDoEv, symObjAddr: 0x2048, symBinAddr: 0x100005EBC, symSize: 0x134 }
  - { offsetInCU: 0x2635B, offset: 0x2635B, size: 0x8, addend: 0x0, symName: __ZN6goDown17unconditionallyDoEv, symObjAddr: 0x217C, symBinAddr: 0x100005FF0, symSize: 0x134 }
  - { offsetInCU: 0x263AA, offset: 0x263AA, size: 0x8, addend: 0x0, symName: __ZN7goRight17unconditionallyDoEv, symObjAddr: 0x1F14, symBinAddr: 0x100005D88, symSize: 0x134 }
  - { offsetInCU: 0x263B2, offset: 0x263B2, size: 0x8, addend: 0x0, symName: __ZN4goUp17unconditionallyDoEv, symObjAddr: 0x2048, symBinAddr: 0x100005EBC, symSize: 0x134 }
  - { offsetInCU: 0x26401, offset: 0x26401, size: 0x8, addend: 0x0, symName: __ZN6goLeft17unconditionallyDoEv, symObjAddr: 0x1DE0, symBinAddr: 0x100005C54, symSize: 0x134 }
  - { offsetInCU: 0x26409, offset: 0x26409, size: 0x8, addend: 0x0, symName: __ZN7goRight17unconditionallyDoEv, symObjAddr: 0x1F14, symBinAddr: 0x100005D88, symSize: 0x134 }
  - { offsetInCU: 0x26458, offset: 0x26458, size: 0x8, addend: 0x0, symName: __ZN16verticalLocation17unconditionallyDoEv, symObjAddr: 0x1DCC, symBinAddr: 0x100005C40, symSize: 0x14 }
  - { offsetInCU: 0x26460, offset: 0x26460, size: 0x8, addend: 0x0, symName: __ZN6goLeft17unconditionallyDoEv, symObjAddr: 0x1DE0, symBinAddr: 0x100005C54, symSize: 0x134 }
  - { offsetInCU: 0x26489, offset: 0x26489, size: 0x8, addend: 0x0, symName: __ZNK16verticalLocation9getOutputEv, symObjAddr: 0x1D88, symBinAddr: 0x100005BFC, symSize: 0x44 }
  - { offsetInCU: 0x26491, offset: 0x26491, size: 0x8, addend: 0x0, symName: __ZN16verticalLocation17unconditionallyDoEv, symObjAddr: 0x1DCC, symBinAddr: 0x100005C40, symSize: 0x14 }
  - { offsetInCU: 0x264E0, offset: 0x264E0, size: 0x8, addend: 0x0, symName: __ZN15lateralLocation17unconditionallyDoEv, symObjAddr: 0x1D74, symBinAddr: 0x100005BE8, symSize: 0x14 }
  - { offsetInCU: 0x264E8, offset: 0x264E8, size: 0x8, addend: 0x0, symName: __ZNK16verticalLocation9getOutputEv, symObjAddr: 0x1D88, symBinAddr: 0x100005BFC, symSize: 0x44 }
  - { offsetInCU: 0x26511, offset: 0x26511, size: 0x8, addend: 0x0, symName: __ZNK15lateralLocation9getOutputEv, symObjAddr: 0x1D28, symBinAddr: 0x100005B9C, symSize: 0x4C }
  - { offsetInCU: 0x26519, offset: 0x26519, size: 0x8, addend: 0x0, symName: __ZN15lateralLocation17unconditionallyDoEv, symObjAddr: 0x1D74, symBinAddr: 0x100005BE8, symSize: 0x14 }
  - { offsetInCU: 0x26568, offset: 0x26568, size: 0x8, addend: 0x0, symName: __ZN9bottomEye17unconditionallyDoEv, symObjAddr: 0x1D14, symBinAddr: 0x100005B88, symSize: 0x14 }
  - { offsetInCU: 0x26570, offset: 0x26570, size: 0x8, addend: 0x0, symName: __ZNK15lateralLocation9getOutputEv, symObjAddr: 0x1D28, symBinAddr: 0x100005B9C, symSize: 0x4C }
  - { offsetInCU: 0x26599, offset: 0x26599, size: 0x8, addend: 0x0, symName: __ZNK9bottomEye9getOutputEv, symObjAddr: 0x1C74, symBinAddr: 0x100005AE8, symSize: 0xA0 }
  - { offsetInCU: 0x265A1, offset: 0x265A1, size: 0x8, addend: 0x0, symName: __ZN9bottomEye17unconditionallyDoEv, symObjAddr: 0x1D14, symBinAddr: 0x100005B88, symSize: 0x14 }
  - { offsetInCU: 0x265CA, offset: 0x265CA, size: 0x8, addend: 0x0, symName: __ZN6topEye17unconditionallyDoEv, symObjAddr: 0x1C60, symBinAddr: 0x100005AD4, symSize: 0x14 }
  - { offsetInCU: 0x265D2, offset: 0x265D2, size: 0x8, addend: 0x0, symName: __ZNK9bottomEye9getOutputEv, symObjAddr: 0x1C74, symBinAddr: 0x100005AE8, symSize: 0xA0 }
  - { offsetInCU: 0x265FB, offset: 0x265FB, size: 0x8, addend: 0x0, symName: __ZNK6topEye9getOutputEv, symObjAddr: 0x1BC0, symBinAddr: 0x100005A34, symSize: 0xA0 }
  - { offsetInCU: 0x26603, offset: 0x26603, size: 0x8, addend: 0x0, symName: __ZN6topEye17unconditionallyDoEv, symObjAddr: 0x1C60, symBinAddr: 0x100005AD4, symSize: 0x14 }
  - { offsetInCU: 0x2662C, offset: 0x2662C, size: 0x8, addend: 0x0, symName: __ZN8rightEye17unconditionallyDoEv, symObjAddr: 0x1BAC, symBinAddr: 0x100005A20, symSize: 0x14 }
  - { offsetInCU: 0x26634, offset: 0x26634, size: 0x8, addend: 0x0, symName: __ZNK6topEye9getOutputEv, symObjAddr: 0x1BC0, symBinAddr: 0x100005A34, symSize: 0xA0 }
  - { offsetInCU: 0x2665D, offset: 0x2665D, size: 0x8, addend: 0x0, symName: __ZNK8rightEye9getOutputEv, symObjAddr: 0x1B0C, symBinAddr: 0x100005980, symSize: 0xA0 }
  - { offsetInCU: 0x26665, offset: 0x26665, size: 0x8, addend: 0x0, symName: __ZN8rightEye17unconditionallyDoEv, symObjAddr: 0x1BAC, symBinAddr: 0x100005A20, symSize: 0x14 }
  - { offsetInCU: 0x2668E, offset: 0x2668E, size: 0x8, addend: 0x0, symName: __ZN7leftEye17unconditionallyDoEv, symObjAddr: 0x1AF8, symBinAddr: 0x10000596C, symSize: 0x14 }
  - { offsetInCU: 0x26696, offset: 0x26696, size: 0x8, addend: 0x0, symName: __ZNK8rightEye9getOutputEv, symObjAddr: 0x1B0C, symBinAddr: 0x100005980, symSize: 0xA0 }
  - { offsetInCU: 0x266BF, offset: 0x266BF, size: 0x8, addend: 0x0, symName: __ZNK7leftEye9getOutputEv, symObjAddr: 0x1A58, symBinAddr: 0x1000058CC, symSize: 0xA0 }
  - { offsetInCU: 0x266C7, offset: 0x266C7, size: 0x8, addend: 0x0, symName: __ZN7leftEye17unconditionallyDoEv, symObjAddr: 0x1AF8, symBinAddr: 0x10000596C, symSize: 0x14 }
  - { offsetInCU: 0x266F0, offset: 0x266F0, size: 0x8, addend: 0x0, symName: __ZNK6neuron9getOutputEv, symObjAddr: 0x1A40, symBinAddr: 0x1000058B4, symSize: 0x18 }
  - { offsetInCU: 0x266F8, offset: 0x266F8, size: 0x8, addend: 0x0, symName: __ZNK7leftEye9getOutputEv, symObjAddr: 0x1A58, symBinAddr: 0x1000058CC, symSize: 0xA0 }
  - { offsetInCU: 0x26721, offset: 0x26721, size: 0x8, addend: 0x0, symName: __ZNK6neuron10isOccupiedEii, symObjAddr: 0x196C, symBinAddr: 0x1000057E0, symSize: 0xD4 }
  - { offsetInCU: 0x26729, offset: 0x26729, size: 0x8, addend: 0x0, symName: __ZNK6neuron9getOutputEv, symObjAddr: 0x1A40, symBinAddr: 0x1000058B4, symSize: 0x18 }
  - { offsetInCU: 0x2677A, offset: 0x2677A, size: 0x8, addend: 0x0, symName: __ZNK6neuron13isOutOfBoundsEii, symObjAddr: 0x1864, symBinAddr: 0x1000056D8, symSize: 0x108 }
  - { offsetInCU: 0x26782, offset: 0x26782, size: 0x8, addend: 0x0, symName: __ZNK6neuron10isOccupiedEii, symObjAddr: 0x196C, symBinAddr: 0x1000057E0, symSize: 0xD4 }
  - { offsetInCU: 0x267D3, offset: 0x267D3, size: 0x8, addend: 0x0, symName: __ZN6neuron15calculateOutputEv, symObjAddr: 0x181C, symBinAddr: 0x100005690, symSize: 0x48 }
  - { offsetInCU: 0x267DB, offset: 0x267DB, size: 0x8, addend: 0x0, symName: __ZNK6neuron13isOutOfBoundsEii, symObjAddr: 0x1864, symBinAddr: 0x1000056D8, symSize: 0x108 }
  - { offsetInCU: 0x26804, offset: 0x26804, size: 0x8, addend: 0x0, symName: __ZN6neuron5resetEv, symObjAddr: 0x17F8, symBinAddr: 0x10000566C, symSize: 0x24 }
  - { offsetInCU: 0x2680C, offset: 0x2680C, size: 0x8, addend: 0x0, symName: __ZN6neuron15calculateOutputEv, symObjAddr: 0x181C, symBinAddr: 0x100005690, symSize: 0x48 }
  - { offsetInCU: 0x26835, offset: 0x26835, size: 0x8, addend: 0x0, symName: __ZN6neuron15accumulateInputEd, symObjAddr: 0x17C8, symBinAddr: 0x10000563C, symSize: 0x30 }
  - { offsetInCU: 0x2683D, offset: 0x2683D, size: 0x8, addend: 0x0, symName: __ZN6neuron5resetEv, symObjAddr: 0x17F8, symBinAddr: 0x10000566C, symSize: 0x24 }
  - { offsetInCU: 0x268B3, offset: 0x268B3, size: 0x8, addend: 0x0, symName: __ZN6neuronD2Ev, symObjAddr: 0x17A0, symBinAddr: 0x100005614, symSize: 0x28 }
  - { offsetInCU: 0x268BB, offset: 0x268BB, size: 0x8, addend: 0x0, symName: __ZN6neuron15accumulateInputEd, symObjAddr: 0x17C8, symBinAddr: 0x10000563C, symSize: 0x30 }
  - { offsetInCU: 0x268D4, offset: 0x268D4, size: 0x8, addend: 0x0, symName: __ZN6neuron15conditionallyDoEv, symObjAddr: 0x1760, symBinAddr: 0x1000055D4, symSize: 0x40 }
  - { offsetInCU: 0x268DC, offset: 0x268DC, size: 0x8, addend: 0x0, symName: __ZN6neuronD2Ev, symObjAddr: 0x17A0, symBinAddr: 0x100005614, symSize: 0x28 }
  - { offsetInCU: 0x26905, offset: 0x26905, size: 0x8, addend: 0x0, symName: __ZN6neuron6setPTRERSt4pairIiiE, symObjAddr: 0x173C, symBinAddr: 0x1000055B0, symSize: 0x24 }
  - { offsetInCU: 0x2690D, offset: 0x2690D, size: 0x8, addend: 0x0, symName: __ZN6neuron15conditionallyDoEv, symObjAddr: 0x1760, symBinAddr: 0x1000055D4, symSize: 0x40 }
  - { offsetInCU: 0x26974, offset: 0x26974, size: 0x8, addend: 0x0, symName: __ZN6neuronC2Ev, symObjAddr: 0x16EC, symBinAddr: 0x100005560, symSize: 0x50 }
  - { offsetInCU: 0x2697C, offset: 0x2697C, size: 0x8, addend: 0x0, symName: __ZN6neuron6setPTRERSt4pairIiiE, symObjAddr: 0x173C, symBinAddr: 0x1000055B0, symSize: 0x24 }
  - { offsetInCU: 0x26995, offset: 0x26995, size: 0x8, addend: 0x0, symName: __ZN19activationFunctions4reluEd, symObjAddr: 0x16C4, symBinAddr: 0x100005538, symSize: 0x28 }
  - { offsetInCU: 0x2699D, offset: 0x2699D, size: 0x8, addend: 0x0, symName: __ZN6neuronC2Ev, symObjAddr: 0x16EC, symBinAddr: 0x100005560, symSize: 0x50 }
  - { offsetInCU: 0x269E8, offset: 0x269E8, size: 0x8, addend: 0x0, symName: __Z10continuousii, symObjAddr: 0x1660, symBinAddr: 0x1000054D4, symSize: 0x64 }
  - { offsetInCU: 0x269F0, offset: 0x269F0, size: 0x8, addend: 0x0, symName: __ZN19activationFunctions4reluEd, symObjAddr: 0x16C4, symBinAddr: 0x100005538, symSize: 0x28 }
  - { offsetInCU: 0x26AC9, offset: 0x26AC9, size: 0x8, addend: 0x0, symName: __Z16stringToUnsignedRKNSt7__cxx1112basic_stringIcSt11char_traitsIcESaIcEEEii, symObjAddr: 0x1350, symBinAddr: 0x1000051C4, symSize: 0x310 }
  - { offsetInCU: 0x26AD1, offset: 0x26AD1, size: 0x8, addend: 0x0, symName: __Z10continuousii, symObjAddr: 0x1660, symBinAddr: 0x1000054D4, symSize: 0x64 }
  - { offsetInCU: 0x26B3B, offset: 0x26B3B, size: 0x8, addend: 0x0, symName: __Z19boolArrayToUnsignedPKbi, symObjAddr: 0x1264, symBinAddr: 0x1000050D8, symSize: 0xEC }
  - { offsetInCU: 0x26B43, offset: 0x26B43, size: 0x8, addend: 0x0, symName: __Z16stringToUnsignedRKNSt7__cxx1112basic_stringIcSt11char_traitsIcESaIcEEEii, symObjAddr: 0x1350, symBinAddr: 0x1000051C4, symSize: 0x310 }
  - { offsetInCU: 0x26BB2, offset: 0x26BB2, size: 0x8, addend: 0x0, symName: __Z10charToBoolc, symObjAddr: 0x1244, symBinAddr: 0x1000050B8, symSize: 0x20 }
  - { offsetInCU: 0x26BBA, offset: 0x26BBA, size: 0x8, addend: 0x0, symName: __Z19boolArrayToUnsignedPKbi, symObjAddr: 0x1264, symBinAddr: 0x1000050D8, symSize: 0xEC }
  - { offsetInCU: 0x26BFC, offset: 0x26BFC, size: 0x8, addend: 0x0, symName: __Z15getRandomDoubledd, symObjAddr: 0x11E4, symBinAddr: 0x100005058, symSize: 0x60 }
  - { offsetInCU: 0x26C04, offset: 0x26C04, size: 0x8, addend: 0x0, symName: __Z10charToBoolc, symObjAddr: 0x1244, symBinAddr: 0x1000050B8, symSize: 0x20 }
  - { offsetInCU: 0x26C7B, offset: 0x26C7B, size: 0x8, addend: 0x0, symName: __Z9getRandomii, symObjAddr: 0x117C, symBinAddr: 0x100004FF0, symSize: 0x68 }
  - { offsetInCU: 0x26C83, offset: 0x26C83, size: 0x8, addend: 0x0, symName: __Z15getRandomDoubledd, symObjAddr: 0x11E4, symBinAddr: 0x100005058, symSize: 0x60 }
  - { offsetInCU: 0x26D7F, offset: 0x26D7F, size: 0x8, addend: 0x0, symName: __ZNSt4pairIKNSt7__cxx1112basic_stringIcSt11char_traitsIcESaIcEEES5_EC1IRA6_KcRA5_S9_Lb1EEEOT_OT0_, symObjAddr: 0x10A0, symBinAddr: 0x100004F14, symSize: 0xDC }
  - { offsetInCU: 0x26D87, offset: 0x26D87, size: 0x8, addend: 0x0, symName: __Z9getRandomii, symObjAddr: 0x117C, symBinAddr: 0x100004FF0, symSize: 0x68 }
  - { offsetInCU: 0x26F63, offset: 0x26F63, size: 0x8, addend: 0x0, symName: __ZNSt4pairIKNSt7__cxx1112basic_stringIcSt11char_traitsIcESaIcEEES5_EC1IRA13_KcRA8_S9_Lb1EEEOT_OT0_, symObjAddr: 0xFC4, symBinAddr: 0x100004E38, symSize: 0xDC }
  - { offsetInCU: 0x26F6B, offset: 0x26F6B, size: 0x8, addend: 0x0, symName: __ZNSt4pairIKNSt7__cxx1112basic_stringIcSt11char_traitsIcESaIcEEES5_EC1IRA6_KcRA5_S9_Lb1EEEOT_OT0_, symObjAddr: 0x10A0, symBinAddr: 0x100004F14, symSize: 0xDC }
  - { offsetInCU: 0x27146, offset: 0x27146, size: 0x8, addend: 0x0, symName: __ZNSt4pairIKNSt7__cxx1112basic_stringIcSt11char_traitsIcESaIcEEES5_EC1IRA10_KcRA8_S9_Lb1EEEOT_OT0_, symObjAddr: 0xEE8, symBinAddr: 0x100004D5C, symSize: 0xDC }
  - { offsetInCU: 0x2714E, offset: 0x2714E, size: 0x8, addend: 0x0, symName: __ZNSt4pairIKNSt7__cxx1112basic_stringIcSt11char_traitsIcESaIcEEES5_EC1IRA13_KcRA8_S9_Lb1EEEOT_OT0_, symObjAddr: 0xFC4, symBinAddr: 0x100004E38, symSize: 0xDC }
  - { offsetInCU: 0x27329, offset: 0x27329, size: 0x8, addend: 0x0, symName: __ZNSt4pairIKNSt7__cxx1112basic_stringIcSt11char_traitsIcESaIcEEES5_EC1IRA12_KcRA8_S9_Lb1EEEOT_OT0_, symObjAddr: 0xE0C, symBinAddr: 0x100004C80, symSize: 0xDC }
  - { offsetInCU: 0x27331, offset: 0x27331, size: 0x8, addend: 0x0, symName: __ZNSt4pairIKNSt7__cxx1112basic_stringIcSt11char_traitsIcESaIcEEES5_EC1IRA10_KcRA8_S9_Lb1EEEOT_OT0_, symObjAddr: 0xEE8, symBinAddr: 0x100004D5C, symSize: 0xDC }
  - { offsetInCU: 0x2750C, offset: 0x2750C, size: 0x8, addend: 0x0, symName: __ZNSt4pairIKNSt7__cxx1112basic_stringIcSt11char_traitsIcESaIcEEES5_EC1IRA11_KcRA8_S9_Lb1EEEOT_OT0_, symObjAddr: 0xD30, symBinAddr: 0x100004BA4, symSize: 0xDC }
  - { offsetInCU: 0x27514, offset: 0x27514, size: 0x8, addend: 0x0, symName: __ZNSt4pairIKNSt7__cxx1112basic_stringIcSt11char_traitsIcESaIcEEES5_EC1IRA12_KcRA8_S9_Lb1EEEOT_OT0_, symObjAddr: 0xE0C, symBinAddr: 0x100004C80, symSize: 0xDC }
  - { offsetInCU: 0x276EE, offset: 0x276EE, size: 0x8, addend: 0x0, symName: __ZNSt4pairIKNSt7__cxx1112basic_stringIcSt11char_traitsIcESaIcEEES5_EC1IRA9_KcRA8_S9_Lb1EEEOT_OT0_, symObjAddr: 0xC54, symBinAddr: 0x100004AC8, symSize: 0xDC }
  - { offsetInCU: 0x276F6, offset: 0x276F6, size: 0x8, addend: 0x0, symName: __ZNSt4pairIKNSt7__cxx1112basic_stringIcSt11char_traitsIcESaIcEEES5_EC1IRA11_KcRA8_S9_Lb1EEEOT_OT0_, symObjAddr: 0xD30, symBinAddr: 0x100004BA4, symSize: 0xDC }
  - { offsetInCU: 0x278D1, offset: 0x278D1, size: 0x8, addend: 0x0, symName: __ZNSt4pairIKNSt7__cxx1112basic_stringIcSt11char_traitsIcESaIcEEES5_EC1IRA8_KcRA6_S9_Lb1EEEOT_OT0_, symObjAddr: 0xB78, symBinAddr: 0x1000049EC, symSize: 0xDC }
  - { offsetInCU: 0x278D9, offset: 0x278D9, size: 0x8, addend: 0x0, symName: __ZNSt4pairIKNSt7__cxx1112basic_stringIcSt11char_traitsIcESaIcEEES5_EC1IRA9_KcRA8_S9_Lb1EEEOT_OT0_, symObjAddr: 0xC54, symBinAddr: 0x100004AC8, symSize: 0xDC }
  - { offsetInCU: 0x27AB4, offset: 0x27AB4, size: 0x8, addend: 0x0, symName: __ZNSt4pairIKNSt7__cxx1112basic_stringIcSt11char_traitsIcESaIcEEES5_EC1IRA5_KcRA6_S9_Lb1EEEOT_OT0_, symObjAddr: 0xA9C, symBinAddr: 0x100004910, symSize: 0xDC }
  - { offsetInCU: 0x27ABC, offset: 0x27ABC, size: 0x8, addend: 0x0, symName: __ZNSt4pairIKNSt7__cxx1112basic_stringIcSt11char_traitsIcESaIcEEES5_EC1IRA8_KcRA6_S9_Lb1EEEOT_OT0_, symObjAddr: 0xB78, symBinAddr: 0x1000049EC, symSize: 0xDC }
  - { offsetInCU: 0x27C97, offset: 0x27C97, size: 0x8, addend: 0x0, symName: __ZNSt4pairIKNSt7__cxx1112basic_stringIcSt11char_traitsIcESaIcEEES5_EC1IRA7_KcRA6_S9_Lb1EEEOT_OT0_, symObjAddr: 0x9C0, symBinAddr: 0x100004834, symSize: 0xDC }
  - { offsetInCU: 0x27C9F, offset: 0x27C9F, size: 0x8, addend: 0x0, symName: __ZNSt4pairIKNSt7__cxx1112basic_stringIcSt11char_traitsIcESaIcEEES5_EC1IRA5_KcRA6_S9_Lb1EEEOT_OT0_, symObjAddr: 0xA9C, symBinAddr: 0x100004910, symSize: 0xDC }
  - { offsetInCU: 0x27E76, offset: 0x27E76, size: 0x8, addend: 0x0, symName: __ZNSt4pairIKNSt7__cxx1112basic_stringIcSt11char_traitsIcESaIcEEES5_EC1IRA6_KcSB_Lb1EEEOT_OT0_, symObjAddr: 0x8E4, symBinAddr: 0x100004758, symSize: 0xDC }
  - { offsetInCU: 0x27E7E, offset: 0x27E7E, size: 0x8, addend: 0x0, symName: __ZNSt4pairIKNSt7__cxx1112basic_stringIcSt11char_traitsIcESaIcEEES5_EC1IRA7_KcRA6_S9_Lb1EEEOT_OT0_, symObjAddr: 0x9C0, symBinAddr: 0x100004834, symSize: 0xDC }
  - { offsetInCU: 0x2805D, offset: 0x2805D, size: 0x8, addend: 0x0, symName: __ZNSt4pairIKNSt7__cxx1112basic_stringIcSt11char_traitsIcESaIcEEES5_EC1IRA4_KcRA6_S9_Lb1EEEOT_OT0_, symObjAddr: 0x808, symBinAddr: 0x10000467C, symSize: 0xDC }
  - { offsetInCU: 0x28065, offset: 0x28065, size: 0x8, addend: 0x0, symName: __ZNSt4pairIKNSt7__cxx1112basic_stringIcSt11char_traitsIcESaIcEEES5_EC1IRA6_KcSB_Lb1EEEOT_OT0_, symObjAddr: 0x8E4, symBinAddr: 0x100004758, symSize: 0xDC }
  - { offsetInCU: 0x281FB, offset: 0x281FB, size: 0x8, addend: 0x0, symName: __ZNSt4pairIKNSt7__cxx1112basic_stringIcSt11char_traitsIcESaIcEEES5_ED1Ev, symObjAddr: 0x7DC, symBinAddr: 0x100004650, symSize: 0x2C }
  - { offsetInCU: 0x28203, offset: 0x28203, size: 0x8, addend: 0x0, symName: __ZNSt4pairIKNSt7__cxx1112basic_stringIcSt11char_traitsIcESaIcEEES5_EC1IRA4_KcRA6_S9_Lb1EEEOT_OT0_, symObjAddr: 0x808, symBinAddr: 0x10000467C, symSize: 0xDC }
  - { offsetInCU: 0x281F6, offset: 0x281F6, size: 0x8, addend: 0x0, symName: __ZSt4setwi, symObjAddr: 0x7C8, symBinAddr: 0x10000463C, symSize: 0x14 }
  - { offsetInCU: 0x281FE, offset: 0x281FE, size: 0x8, addend: 0x0, symName: __ZNSt4pairIKNSt7__cxx1112basic_stringIcSt11char_traitsIcESaIcEEES5_ED1Ev, symObjAddr: 0x7DC, symBinAddr: 0x100004650, symSize: 0x2C }
  - { offsetInCU: 0x28221, offset: 0x28221, size: 0x8, addend: 0x0, symName: __ZNKSt6chrono8durationIxSt5ratioILl1ELl1000000000EEE5countEv, symObjAddr: 0x7B0, symBinAddr: 0x100004624, symSize: 0x18 }
  - { offsetInCU: 0x28229, offset: 0x28229, size: 0x8, addend: 0x0, symName: __ZSt4setwi, symObjAddr: 0x7C8, symBinAddr: 0x10000463C, symSize: 0x14 }
  - { offsetInCU: 0x28253, offset: 0x28253, size: 0x8, addend: 0x0, symName: __ZNSt6chrono15duration_valuesIxE4zeroEv, symObjAddr: 0x7A8, symBinAddr: 0x10000461C, symSize: 0x8 }
  - { offsetInCU: 0x2825B, offset: 0x2825B, size: 0x8, addend: 0x0, symName: __ZNKSt6chrono8durationIxSt5ratioILl1ELl1000000000EEE5countEv, symObjAddr: 0x7B0, symBinAddr: 0x100004624, symSize: 0x18 }
  - { offsetInCU: 0x282E8, offset: 0x282E8, size: 0x8, addend: 0x0, symName: __ZNSt6chrono8durationIxSt5ratioILl1ELl1000000000EEEC1IxvEERKT_, symObjAddr: 0x780, symBinAddr: 0x1000045F4, symSize: 0x28 }
  - { offsetInCU: 0x282F0, offset: 0x282F0, size: 0x8, addend: 0x0, symName: __ZNSt6chrono15duration_valuesIxE4zeroEv, symObjAddr: 0x7A8, symBinAddr: 0x10000461C, symSize: 0x8 }
  - { offsetInCU: 0x28324, offset: 0x28324, size: 0x8, addend: 0x0, symName: __ZSt3minImERKT_S2_S2_, symObjAddr: 0x748, symBinAddr: 0x1000045BC, symSize: 0x38 }
  - { offsetInCU: 0x2832C, offset: 0x2832C, size: 0x8, addend: 0x0, symName: __ZNSt6chrono8durationIxSt5ratioILl1ELl1000000000EEEC1IxvEERKT_, symObjAddr: 0x780, symBinAddr: 0x1000045F4, symSize: 0x28 }
  - { offsetInCU: 0x28353, offset: 0x28353, size: 0x8, addend: 0x0, symName: __ZNSt8__detail20_Prime_rehash_policy8_M_resetEm, symObjAddr: 0x724, symBinAddr: 0x100004598, symSize: 0x24 }
  - { offsetInCU: 0x2835B, offset: 0x2835B, size: 0x8, addend: 0x0, symName: __ZSt3minImERKT_S2_S2_, symObjAddr: 0x748, symBinAddr: 0x1000045BC, symSize: 0x38 }
  - { offsetInCU: 0x28399, offset: 0x28399, size: 0x8, addend: 0x0, symName: __ZNKSt8__detail20_Prime_rehash_policy8_M_stateEv, symObjAddr: 0x70C, symBinAddr: 0x100004580, symSize: 0x18 }
  - { offsetInCU: 0x283A1, offset: 0x283A1, size: 0x8, addend: 0x0, symName: __ZNSt8__detail20_Prime_rehash_policy8_M_resetEm, symObjAddr: 0x724, symBinAddr: 0x100004598, symSize: 0x24 }
  - { offsetInCU: 0x28420, offset: 0x28420, size: 0x8, addend: 0x0, symName: __ZNSt8__detail20_Prime_rehash_policyC1Ef, symObjAddr: 0x6E0, symBinAddr: 0x100004554, symSize: 0x2C }
  - { offsetInCU: 0x28428, offset: 0x28428, size: 0x8, addend: 0x0, symName: __ZNKSt8__detail20_Prime_rehash_policy8_M_stateEv, symObjAddr: 0x70C, symBinAddr: 0x100004580, symSize: 0x18 }
  - { offsetInCU: 0x28434, offset: 0x28434, size: 0x8, addend: 0x0, symName: __ZNKSt8__detail18_Mod_range_hashingclEmm, symObjAddr: 0x6B0, symBinAddr: 0x100004524, symSize: 0x30 }
  - { offsetInCU: 0x2843C, offset: 0x2843C, size: 0x8, addend: 0x0, symName: __ZNSt8__detail20_Prime_rehash_policyC1Ef, symObjAddr: 0x6E0, symBinAddr: 0x100004554, symSize: 0x2C }
  - { offsetInCU: 0x284CE, offset: 0x284CE, size: 0x8, addend: 0x0, symName: __ZNSt8__detail15_Hash_node_baseC1Ev, symObjAddr: 0x694, symBinAddr: 0x100004508, symSize: 0x1C }
  - { offsetInCU: 0x284D6, offset: 0x284D6, size: 0x8, addend: 0x0, symName: __ZNKSt8__detail18_Mod_range_hashingclEmm, symObjAddr: 0x6B0, symBinAddr: 0x100004524, symSize: 0x30 }
  - { offsetInCU: 0x284FE, offset: 0x284FE, size: 0x8, addend: 0x0, symName: __ZNSt8__detail15_Hash_node_baseC2Ev, symObjAddr: 0x678, symBinAddr: 0x1000044EC, symSize: 0x1C }
  - { offsetInCU: 0x28506, offset: 0x28506, size: 0x8, addend: 0x0, symName: __ZNSt8__detail15_Hash_node_baseC1Ev, symObjAddr: 0x694, symBinAddr: 0x100004508, symSize: 0x1C }
  - { offsetInCU: 0x2850A, offset: 0x2850A, size: 0x8, addend: 0x0, symName: __ZNSt13random_deviceclEv, symObjAddr: 0x65C, symBinAddr: 0x1000044D0, symSize: 0x1C }
  - { offsetInCU: 0x28512, offset: 0x28512, size: 0x8, addend: 0x0, symName: __ZNSt8__detail15_Hash_node_baseC2Ev, symObjAddr: 0x678, symBinAddr: 0x1000044EC, symSize: 0x1C }
  - { offsetInCU: 0x2857E, offset: 0x2857E, size: 0x8, addend: 0x0, symName: __ZNSt13random_deviceD1Ev, symObjAddr: 0x63C, symBinAddr: 0x1000044B0, symSize: 0x20 }
  - { offsetInCU: 0x28586, offset: 0x28586, size: 0x8, addend: 0x0, symName: __ZNSt13random_deviceclEv, symObjAddr: 0x65C, symBinAddr: 0x1000044D0, symSize: 0x1C }
  - { offsetInCU: 0x285C9, offset: 0x285C9, size: 0x8, addend: 0x0, symName: __ZNSt13random_deviceC1Ev, symObjAddr: 0x5A4, symBinAddr: 0x100004418, symSize: 0x98 }
  - { offsetInCU: 0x285D1, offset: 0x285D1, size: 0x8, addend: 0x0, symName: __ZNSt13random_deviceD1Ev, symObjAddr: 0x63C, symBinAddr: 0x1000044B0, symSize: 0x20 }
  - { offsetInCU: 0x28693, offset: 0x28693, size: 0x8, addend: 0x0, symName: __ZSt4leftRSt8ios_base, symObjAddr: 0x57C, symBinAddr: 0x1000043F0, symSize: 0x28 }
  - { offsetInCU: 0x2869B, offset: 0x2869B, size: 0x8, addend: 0x0, symName: __ZNSt13random_deviceC1Ev, symObjAddr: 0x5A4, symBinAddr: 0x100004418, symSize: 0x98 }
  - { offsetInCU: 0x286C7, offset: 0x286C7, size: 0x8, addend: 0x0, symName: __ZNSt8ios_base4setfESt13_Ios_FmtflagsS0_, symObjAddr: 0x51C, symBinAddr: 0x100004390, symSize: 0x60 }
  - { offsetInCU: 0x286CF, offset: 0x286CF, size: 0x8, addend: 0x0, symName: __ZSt4leftRSt8ios_base, symObjAddr: 0x57C, symBinAddr: 0x1000043F0, symSize: 0x28 }
  - { offsetInCU: 0x28761, offset: 0x28761, size: 0x8, addend: 0x0, symName: __ZStaNRSt13_Ios_FmtflagsS_, symObjAddr: 0x4E4, symBinAddr: 0x100004358, symSize: 0x38 }
  - { offsetInCU: 0x28769, offset: 0x28769, size: 0x8, addend: 0x0, symName: __ZNSt8ios_base4setfESt13_Ios_FmtflagsS0_, symObjAddr: 0x51C, symBinAddr: 0x100004390, symSize: 0x60 }
  - { offsetInCU: 0x287C8, offset: 0x287C8, size: 0x8, addend: 0x0, symName: __ZStoRRSt13_Ios_FmtflagsS_, symObjAddr: 0x4AC, symBinAddr: 0x100004320, symSize: 0x38 }
  - { offsetInCU: 0x287D0, offset: 0x287D0, size: 0x8, addend: 0x0, symName: __ZStaNRSt13_Ios_FmtflagsS_, symObjAddr: 0x4E4, symBinAddr: 0x100004358, symSize: 0x38 }
  - { offsetInCU: 0x28817, offset: 0x28817, size: 0x8, addend: 0x0, symName: __ZStcoSt13_Ios_Fmtflags, symObjAddr: 0x494, symBinAddr: 0x100004308, symSize: 0x18 }
  - { offsetInCU: 0x2881F, offset: 0x2881F, size: 0x8, addend: 0x0, symName: __ZStoRRSt13_Ios_FmtflagsS_, symObjAddr: 0x4AC, symBinAddr: 0x100004320, symSize: 0x38 }
  - { offsetInCU: 0x28858, offset: 0x28858, size: 0x8, addend: 0x0, symName: __ZStorSt13_Ios_FmtflagsS_, symObjAddr: 0x474, symBinAddr: 0x1000042E8, symSize: 0x20 }
  - { offsetInCU: 0x28860, offset: 0x28860, size: 0x8, addend: 0x0, symName: __ZStcoSt13_Ios_Fmtflags, symObjAddr: 0x494, symBinAddr: 0x100004308, symSize: 0x18 }
  - { offsetInCU: 0x288AB, offset: 0x288AB, size: 0x8, addend: 0x0, symName: __ZStanSt13_Ios_FmtflagsS_, symObjAddr: 0x454, symBinAddr: 0x1000042C8, symSize: 0x20 }
  - { offsetInCU: 0x288B3, offset: 0x288B3, size: 0x8, addend: 0x0, symName: __ZStorSt13_Ios_FmtflagsS_, symObjAddr: 0x474, symBinAddr: 0x1000042E8, symSize: 0x20 }
  - { offsetInCU: 0x288FA, offset: 0x288FA, size: 0x8, addend: 0x0, symName: __ZNSt7__cxx119to_stringEd, symObjAddr: 0x3FC, symBinAddr: 0x100004270, symSize: 0x58 }
  - { offsetInCU: 0x28902, offset: 0x28902, size: 0x8, addend: 0x0, symName: __ZStanSt13_Ios_FmtflagsS_, symObjAddr: 0x454, symBinAddr: 0x1000042C8, symSize: 0x20 }
  - { offsetInCU: 0x28950, offset: 0x28950, size: 0x8, addend: 0x0, symName: __ZNSt7__cxx119to_stringEm, symObjAddr: 0x340, symBinAddr: 0x1000041B4, symSize: 0xBC }
  - { offsetInCU: 0x28958, offset: 0x28958, size: 0x8, addend: 0x0, symName: __ZNSt7__cxx119to_stringEd, symObjAddr: 0x3FC, symBinAddr: 0x100004270, symSize: 0x58 }
  - { offsetInCU: 0x28A39, offset: 0x28A39, size: 0x8, addend: 0x0, symName: __ZNSt7__cxx119to_stringEj, symObjAddr: 0x2B0, symBinAddr: 0x100004124, symSize: 0x90 }
  - { offsetInCU: 0x28A41, offset: 0x28A41, size: 0x8, addend: 0x0, symName: __ZNSt7__cxx119to_stringEm, symObjAddr: 0x340, symBinAddr: 0x1000041B4, symSize: 0xBC }
  - { offsetInCU: 0x28AFE, offset: 0x28AFE, size: 0x8, addend: 0x0, symName: __ZNSt7__cxx119to_stringEi, symObjAddr: 0x1EC, symBinAddr: 0x100004060, symSize: 0xC4 }
  - { offsetInCU: 0x28B06, offset: 0x28B06, size: 0x8, addend: 0x0, symName: __ZNSt7__cxx119to_stringEj, symObjAddr: 0x2B0, symBinAddr: 0x100004124, symSize: 0x90 }
  - { offsetInCU: 0x28BDE, offset: 0x28BDE, size: 0x8, addend: 0x0, symName: __ZNSt10_Hash_impl4hashEPKvmm, symObjAddr: 0x1C0, symBinAddr: 0x100004034, symSize: 0x2C }
  - { offsetInCU: 0x28BE6, offset: 0x28BE6, size: 0x8, addend: 0x0, symName: __ZNSt7__cxx119to_stringEi, symObjAddr: 0x1EC, symBinAddr: 0x100004060, symSize: 0xC4 }
  - { offsetInCU: 0x28C69, offset: 0x28C69, size: 0x8, addend: 0x0, symName: __ZSt17__size_to_integerm, symObjAddr: 0x1AC, symBinAddr: 0x100004020, symSize: 0x14 }
  - { offsetInCU: 0x28C71, offset: 0x28C71, size: 0x8, addend: 0x0, symName: __ZNSt10_Hash_impl4hashEPKvmm, symObjAddr: 0x1C0, symBinAddr: 0x100004034, symSize: 0x2C }
  - { offsetInCU: 0x28C7A, offset: 0x28C7A, size: 0x8, addend: 0x0, symName: __ZNSt11char_traitsIcE6lengthEPKc, symObjAddr: 0x16C, symBinAddr: 0x100003FE0, symSize: 0x40 }
  - { offsetInCU: 0x28C82, offset: 0x28C82, size: 0x8, addend: 0x0, symName: __ZSt17__size_to_integerm, symObjAddr: 0x1AC, symBinAddr: 0x100004020, symSize: 0x14 }
  - { offsetInCU: 0x28CAE, offset: 0x28CAE, size: 0x8, addend: 0x0, symName: __ZNSt11char_traitsIcE7compareEPKcS2_m, symObjAddr: 0x70, symBinAddr: 0x100003EE4, symSize: 0xFC }
  - { offsetInCU: 0x28CB6, offset: 0x28CB6, size: 0x8, addend: 0x0, symName: __ZNSt11char_traitsIcE6lengthEPKc, symObjAddr: 0x16C, symBinAddr: 0x100003FE0, symSize: 0x40 }
  - { offsetInCU: 0x28D34, offset: 0x28D34, size: 0x8, addend: 0x0, symName: __ZNSt11char_traitsIcE2ltERKcS2_, symObjAddr: 0x38, symBinAddr: 0x100003EAC, symSize: 0x38 }
  - { offsetInCU: 0x28D3C, offset: 0x28D3C, size: 0x8, addend: 0x0, symName: __ZNSt11char_traitsIcE7compareEPKcS2_m, symObjAddr: 0x70, symBinAddr: 0x100003EE4, symSize: 0xFC }
  - { offsetInCU: 0x28D8B, offset: 0x28D8B, size: 0x8, addend: 0x0, symName: __ZdlPvS_, symObjAddr: 0x20, symBinAddr: 0x100003E94, symSize: 0x18 }
  - { offsetInCU: 0x28D93, offset: 0x28D93, size: 0x8, addend: 0x0, symName: __ZNSt11char_traitsIcE2ltERKcS2_, symObjAddr: 0x38, symBinAddr: 0x100003EAC, symSize: 0x38 }
  - { offsetInCU: 0x28DCB, offset: 0x28DCB, size: 0x8, addend: 0x0, symName: __ZnwmPv, symObjAddr: 0x8, symBinAddr: 0x100003E7C, symSize: 0x18 }
  - { offsetInCU: 0x28DD3, offset: 0x28DD3, size: 0x8, addend: 0x0, symName: __ZdlPvS_, symObjAddr: 0x20, symBinAddr: 0x100003E94, symSize: 0x18 }
  - { offsetInCU: 0x28E43, offset: 0x28E43, size: 0x8, addend: 0x0, symName: __ZSt23__is_constant_evaluatedv, symObjAddr: 0x0, symBinAddr: 0x100003E74, symSize: 0x8 }
  - { offsetInCU: 0x28E4B, offset: 0x28E4B, size: 0x8, addend: 0x0, symName: __ZnwmPv, symObjAddr: 0x8, symBinAddr: 0x100003E7C, symSize: 0x18 }
...
